Microsoft (R) COFF/PE Dumper Version 10.00.30319.01
Copyright (C) Microsoft Corporation.  All rights reserved.


Dump of file hello.exe

File Type: EXECUTABLE IMAGE

  00401000: 55                 push        ebp
  00401001: 8B EC              mov         ebp,esp
  00401003: 68 30 80 40 00     push        408030h
  00401008: E8 23 00 00 00     call        00401030
  0040100D: 83 C4 04           add         esp,4
  00401010: 68 38 80 40 00     push        408038h
  00401015: E8 27 00 00 00     call        00401041
  0040101A: 83 C4 04           add         esp,4
  0040101D: 33 C0              xor         eax,eax
  0040101F: 5D                 pop         ebp
  00401020: C3                 ret
  00401021: CC                 int         3
  00401022: CC                 int         3
  00401023: CC                 int         3
  00401024: CC                 int         3
  00401025: CC                 int         3
  00401026: CC                 int         3
  00401027: CC                 int         3
  00401028: CC                 int         3
  00401029: CC                 int         3
  0040102A: CC                 int         3
  0040102B: CC                 int         3
  0040102C: CC                 int         3
  0040102D: CC                 int         3
  0040102E: CC                 int         3
  0040102F: CC                 int         3
  00401030: 55                 push        ebp
  00401031: 8B EC              mov         ebp,esp
  00401033: 8B 45 08           mov         eax,dword ptr [ebp+8]
  00401036: 50                 push        eax
  00401037: E8 9B 00 00 00     call        004010D7
  0040103C: 83 C4 04           add         esp,4
  0040103F: 5D                 pop         ebp
  00401040: C3                 ret
  00401041: 55                 push        ebp
  00401042: 8B EC              mov         ebp,esp
  00401044: 83 EC 10           sub         esp,10h
  00401047: 56                 push        esi
  00401048: 68 E8 70 40 00     push        4070E8h
  0040104D: E8 21 06 00 00     call        00401673
  00401052: 59                 pop         ecx
  00401053: 33 F6              xor         esi,esi
  00401055: 8B 4D 08           mov         ecx,dword ptr [ebp+8]
  00401058: 89 45 F0           mov         dword ptr [ebp-10h],eax
  0040105B: 3B CE              cmp         ecx,esi
  0040105D: 75 18              jne         00401077
  0040105F: 3B C6              cmp         eax,esi
  00401061: 75 04              jne         00401067
  00401063: 33 C0              xor         eax,eax
  00401065: EB 6D              jmp         004010D4
  00401067: 56                 push        esi
  00401068: 50                 push        eax
  00401069: E8 C1 05 00 00     call        0040162F
  0040106E: F7 D8              neg         eax
  00401070: 59                 pop         ecx
  00401071: 1B C0              sbb         eax,eax
  00401073: 59                 pop         ecx
  00401074: 40                 inc         eax
  00401075: EB 5D              jmp         004010D4
  00401077: 3B C6              cmp         eax,esi
  00401079: C7 45 F4 E4 70 40  mov         dword ptr [ebp-0Ch],4070E4h
            00
  00401080: 89 4D F8           mov         dword ptr [ebp-8],ecx
  00401083: 89 75 FC           mov         dword ptr [ebp-4],esi
  00401086: 74 24              je          004010AC
  00401088: 8D 4D F0           lea         ecx,[ebp-10h]
  0040108B: 56                 push        esi
  0040108C: 51                 push        ecx
  0040108D: 50                 push        eax
  0040108E: 56                 push        esi
  0040108F: E8 01 04 00 00     call        00401495
  00401094: 83 C4 10           add         esp,10h
  00401097: 83 F8 FF           cmp         eax,0FFFFFFFFh
  0040109A: 75 38              jne         004010D4
  0040109C: 8B 0D 0C A9 40 00  mov         ecx,dword ptr ds:[0040A90Ch]
  004010A2: 83 F9 02           cmp         ecx,2
  004010A5: 74 05              je          004010AC
  004010A7: 83 F9 0D           cmp         ecx,0Dh
  004010AA: 75 28              jne         004010D4
  004010AC: F6 05 19 A9 40 00  test        byte ptr ds:[0040A919h],80h
            80
  004010B3: C7 45 F0 D8 70 40  mov         dword ptr [ebp-10h],4070D8h
            00
  004010BA: 75 07              jne         004010C3
  004010BC: C7 45 F0 D0 70 40  mov         dword ptr [ebp-10h],4070D0h
            00
  004010C3: 8D 45 F0           lea         eax,[ebp-10h]
  004010C6: 56                 push        esi
  004010C7: 50                 push        eax
  004010C8: FF 75 F0           push        dword ptr [ebp-10h]
  004010CB: 56                 push        esi
  004010CC: E8 5F 01 00 00     call        00401230
  004010D1: 83 C4 10           add         esp,10h
  004010D4: 5E                 pop         esi
  004010D5: C9                 leave
  004010D6: C3                 ret
  004010D7: 53                 push        ebx
  004010D8: 56                 push        esi
  004010D9: BE 80 80 40 00     mov         esi,408080h
  004010DE: 57                 push        edi
  004010DF: 56                 push        esi
  004010E0: E8 0B 06 00 00     call        004016F0
  004010E5: 8B F8              mov         edi,eax
  004010E7: 8D 44 24 18        lea         eax,[esp+18h]
  004010EB: 50                 push        eax
  004010EC: FF 74 24 18        push        dword ptr [esp+18h]
  004010F0: 56                 push        esi
  004010F1: E8 C4 06 00 00     call        004017BA
  004010F6: 56                 push        esi
  004010F7: 57                 push        edi
  004010F8: 8B D8              mov         ebx,eax
  004010FA: E8 7E 06 00 00     call        0040177D
  004010FF: 83 C4 18           add         esp,18h
  00401102: 8B C3              mov         eax,ebx
  00401104: 5F                 pop         edi
  00401105: 5E                 pop         esi
  00401106: 5B                 pop         ebx
  00401107: C3                 ret
  00401108: 55                 push        ebp
  00401109: 8B EC              mov         ebp,esp
  0040110B: 6A FF              push        0FFFFFFFFh
  0040110D: 68 F0 70 40 00     push        4070F0h
  00401112: 68 0C 2B 40 00     push        402B0Ch
  00401117: 64 A1 00 00 00 00  mov         eax,dword ptr fs:[00000000h]
  0040111D: 50                 push        eax
  0040111E: 64 89 25 00 00 00  mov         dword ptr fs:[00000000h],esp
            00
  00401125: 83 EC 10           sub         esp,10h
  00401128: 53                 push        ebx
  00401129: 56                 push        esi
  0040112A: 57                 push        edi
  0040112B: 89 65 E8           mov         dword ptr [ebp-18h],esp
  0040112E: FF 15 04 70 40 00  call        dword ptr ds:[00407004h]
  00401134: 33 D2              xor         edx,edx
  00401136: 8A D4              mov         dl,ah
  00401138: 89 15 24 A9 40 00  mov         dword ptr ds:[0040A924h],edx
  0040113E: 8B C8              mov         ecx,eax
  00401140: 81 E1 FF 00 00 00  and         ecx,0FFh
  00401146: 89 0D 20 A9 40 00  mov         dword ptr ds:[0040A920h],ecx
  0040114C: C1 E1 08           shl         ecx,8
  0040114F: 03 CA              add         ecx,edx
  00401151: 89 0D 1C A9 40 00  mov         dword ptr ds:[0040A91Ch],ecx
  00401157: C1 E8 10           shr         eax,10h
  0040115A: A3 18 A9 40 00     mov         dword ptr ds:[0040A918h],eax
  0040115F: 6A 00              push        0
  00401161: E8 50 18 00 00     call        004029B6
  00401166: 59                 pop         ecx
  00401167: 85 C0              test        eax,eax
  00401169: 75 08              jne         00401173
  0040116B: 6A 1C              push        1Ch
  0040116D: E8 9A 00 00 00     call        0040120C
  00401172: 59                 pop         ecx
  00401173: 83 65 FC 00        and         dword ptr [ebp-4],0
  00401177: E8 1A 15 00 00     call        00402696
  0040117C: FF 15 00 70 40 00  call        dword ptr ds:[00407000h]
  00401182: A3 58 BE 40 00     mov         dword ptr ds:[0040BE58h],eax
  00401187: E8 D8 13 00 00     call        00402564
  0040118C: A3 00 A9 40 00     mov         dword ptr ds:[0040A900h],eax
  00401191: E8 81 11 00 00     call        00402317
  00401196: E8 C3 10 00 00     call        0040225E
  0040119B: E8 F3 01 00 00     call        00401393
  004011A0: A1 34 A9 40 00     mov         eax,dword ptr ds:[0040A934h]
  004011A5: A3 38 A9 40 00     mov         dword ptr ds:[0040A938h],eax
  004011AA: 50                 push        eax
  004011AB: FF 35 2C A9 40 00  push        dword ptr ds:[0040A92Ch]
  004011B1: FF 35 28 A9 40 00  push        dword ptr ds:[0040A928h]
  004011B7: E8 44 FE FF FF     call        00401000
  004011BC: 83 C4 0C           add         esp,0Ch
  004011BF: 89 45 E4           mov         dword ptr [ebp-1Ch],eax
  004011C2: 50                 push        eax
  004011C3: E8 F8 01 00 00     call        004013C0
  004011C8: 8B 45 EC           mov         eax,dword ptr [ebp-14h]
  004011CB: 8B 08              mov         ecx,dword ptr [eax]
  004011CD: 8B 09              mov         ecx,dword ptr [ecx]
  004011CF: 89 4D E0           mov         dword ptr [ebp-20h],ecx
  004011D2: 50                 push        eax
  004011D3: 51                 push        ecx
  004011D4: E8 01 0F 00 00     call        004020DA
  004011D9: 59                 pop         ecx
  004011DA: 59                 pop         ecx
  004011DB: C3                 ret
  004011DC: 8B 65 E8           mov         esp,dword ptr [ebp-18h]
  004011DF: FF 75 E0           push        dword ptr [ebp-20h]
  004011E2: E8 EA 01 00 00     call        004013D1
  004011E7: 83 3D 08 A9 40 00  cmp         dword ptr ds:[0040A908h],2
            02
  004011EE: 74 05              je          004011F5
  004011F0: E8 EF 19 00 00     call        00402BE4
  004011F5: FF 74 24 04        push        dword ptr [esp+4]
  004011F9: E8 1F 1A 00 00     call        00402C1D
  004011FE: 68 FF 00 00 00     push        0FFh
  00401203: FF 15 40 80 40 00  call        dword ptr ds:[00408040h]
  00401209: 59                 pop         ecx
  0040120A: 59                 pop         ecx
  0040120B: C3                 ret
  0040120C: 83 3D 08 A9 40 00  cmp         dword ptr ds:[0040A908h],2
            02
  00401213: 74 05              je          0040121A
  00401215: E8 CA 19 00 00     call        00402BE4
  0040121A: FF 74 24 04        push        dword ptr [esp+4]
  0040121E: E8 FA 19 00 00     call        00402C1D
  00401223: 59                 pop         ecx
  00401224: 68 FF 00 00 00     push        0FFh
  00401229: FF 15 08 70 40 00  call        dword ptr ds:[00407008h]
  0040122F: C3                 ret
  00401230: 55                 push        ebp
  00401231: 8B EC              mov         ebp,esp
  00401233: 51                 push        ecx
  00401234: 51                 push        ecx
  00401235: 56                 push        esi
  00401236: 57                 push        edi
  00401237: FF 75 14           push        dword ptr [ebp+14h]
  0040123A: FF 75 10           push        dword ptr [ebp+10h]
  0040123D: FF 75 0C           push        dword ptr [ebp+0Ch]
  00401240: FF 75 08           push        dword ptr [ebp+8]
  00401243: E8 4D 02 00 00     call        00401495
  00401248: 83 C4 10           add         esp,10h
  0040124B: 83 F8 FF           cmp         eax,0FFFFFFFFh
  0040124E: 89 45 F8           mov         dword ptr [ebp-8],eax
  00401251: 0F 85 35 01 00 00  jne         0040138C
  00401257: 83 3D 0C A9 40 00  cmp         dword ptr ds:[0040A90Ch],2
            02
  0040125E: 0F 85 28 01 00 00  jne         0040138C
  00401264: 6A 2F              push        2Fh
  00401266: FF 75 0C           push        dword ptr [ebp+0Ch]
  00401269: E8 63 1E 00 00     call        004030D1
  0040126E: 59                 pop         ecx
  0040126F: 85 C0              test        eax,eax
  00401271: 59                 pop         ecx
  00401272: 0F 85 14 01 00 00  jne         0040138C
  00401278: 68 00 71 40 00     push        407100h
  0040127D: E8 F1 03 00 00     call        00401673
  00401282: 8B F8              mov         edi,eax
  00401284: 59                 pop         ecx
  00401285: 85 FF              test        edi,edi
  00401287: 0F 84 FF 00 00 00  je          0040138C
  0040128D: 68 04 01 00 00     push        104h
  00401292: E8 88 1D 00 00     call        0040301F
  00401297: 8B F0              mov         esi,eax
  00401299: 59                 pop         ecx
  0040129A: 85 F6              test        esi,esi
  0040129C: 0F 84 EA 00 00 00  je          0040138C
  004012A2: 53                 push        ebx
  004012A3: BB 03 01 00 00     mov         ebx,103h
  004012A8: 53                 push        ebx
  004012A9: 56                 push        esi
  004012AA: 57                 push        edi
  004012AB: E8 FB 1C 00 00     call        00402FAB
  004012B0: 83 C4 0C           add         esp,0Ch
  004012B3: 89 45 FC           mov         dword ptr [ebp-4],eax
  004012B6: 85 C0              test        eax,eax
  004012B8: 0F 84 C6 00 00 00  je          00401384
  004012BE: 80 3E 00           cmp         byte ptr [esi],0
  004012C1: 0F 84 BD 00 00 00  je          00401384
  004012C7: 56                 push        esi
  004012C8: E8 63 1C 00 00     call        00402F30
  004012CD: 8D 7C 30 FF        lea         edi,[eax+esi-1]
  004012D1: 59                 pop         ecx
  004012D2: 8A 07              mov         al,byte ptr [edi]
  004012D4: 3C 5C              cmp         al,5Ch
  004012D6: 75 0E              jne         004012E6
  004012D8: 6A 5C              push        5Ch
  004012DA: 56                 push        esi
  004012DB: E8 F0 1B 00 00     call        00402ED0
  004012E0: 59                 pop         ecx
  004012E1: 3B F8              cmp         edi,eax
  004012E3: 59                 pop         ecx
  004012E4: EB 02              jmp         004012E8
  004012E6: 3C 2F              cmp         al,2Fh
  004012E8: 74 0D              je          004012F7
  004012EA: 68 FC 70 40 00     push        4070FCh
  004012EF: 56                 push        esi
  004012F0: E8 FB 1A 00 00     call        00402DF0
  004012F5: 59                 pop         ecx
  004012F6: 59                 pop         ecx
  004012F7: 56                 push        esi
  004012F8: E8 33 1C 00 00     call        00402F30
  004012FD: FF 75 0C           push        dword ptr [ebp+0Ch]
  00401300: 8B F8              mov         edi,eax
  00401302: E8 29 1C 00 00     call        00402F30
  00401307: 03 F8              add         edi,eax
  00401309: 59                 pop         ecx
  0040130A: 81 FF 04 01 00 00  cmp         edi,104h
  00401310: 59                 pop         ecx
  00401311: 73 71              jae         00401384
  00401313: FF 75 0C           push        dword ptr [ebp+0Ch]
  00401316: 56                 push        esi
  00401317: E8 D4 1A 00 00     call        00402DF0
  0040131C: FF 75 14           push        dword ptr [ebp+14h]
  0040131F: FF 75 10           push        dword ptr [ebp+10h]
  00401322: 56                 push        esi
  00401323: FF 75 08           push        dword ptr [ebp+8]
  00401326: E8 6A 01 00 00     call        00401495
  0040132B: 83 C4 18           add         esp,18h
  0040132E: 83 F8 FF           cmp         eax,0FFFFFFFFh
  00401331: 89 45 F8           mov         dword ptr [ebp-8],eax
  00401334: 75 4E              jne         00401384
  00401336: 83 3D 0C A9 40 00  cmp         dword ptr ds:[0040A90Ch],2
            02
  0040133D: 74 3B              je          0040137A
  0040133F: 6A 5C              push        5Ch
  00401341: 56                 push        esi
  00401342: E8 8A 1D 00 00     call        004030D1
  00401347: 59                 pop         ecx
  00401348: 3B F0              cmp         esi,eax
  0040134A: 59                 pop         ecx
  0040134B: 74 0E              je          0040135B
  0040134D: 6A 2F              push        2Fh
  0040134F: 56                 push        esi
  00401350: E8 7C 1D 00 00     call        004030D1
  00401355: 59                 pop         ecx
  00401356: 3B F0              cmp         esi,eax
  00401358: 59                 pop         ecx
  00401359: 75 29              jne         00401384
  0040135B: 8D 7E 01           lea         edi,[esi+1]
  0040135E: 6A 5C              push        5Ch
  00401360: 57                 push        edi
  00401361: E8 6B 1D 00 00     call        004030D1
  00401366: 59                 pop         ecx
  00401367: 3B F8              cmp         edi,eax
  00401369: 59                 pop         ecx
  0040136A: 74 0E              je          0040137A
  0040136C: 6A 2F              push        2Fh
  0040136E: 57                 push        edi
  0040136F: E8 5D 1D 00 00     call        004030D1
  00401374: 59                 pop         ecx
  00401375: 3B F8              cmp         edi,eax
  00401377: 59                 pop         ecx
  00401378: 75 0A              jne         00401384
  0040137A: 53                 push        ebx
  0040137B: 56                 push        esi
  0040137C: FF 75 FC           push        dword ptr [ebp-4]
  0040137F: E9 27 FF FF FF     jmp         004012AB
  00401384: 56                 push        esi
  00401385: E8 E6 19 00 00     call        00402D70
  0040138A: 59                 pop         ecx
  0040138B: 5B                 pop         ebx
  0040138C: 8B 45 F8           mov         eax,dword ptr [ebp-8]
  0040138F: 5F                 pop         edi
  00401390: 5E                 pop         esi
  00401391: C9                 leave
  00401392: C3                 ret
  00401393: A1 54 BE 40 00     mov         eax,dword ptr ds:[0040BE54h]
  00401398: 85 C0              test        eax,eax
  0040139A: 74 02              je          0040139E
  0040139C: FF D0              call        eax
  0040139E: 68 14 80 40 00     push        408014h
  004013A3: 68 08 80 40 00     push        408008h
  004013A8: E8 CE 00 00 00     call        0040147B
  004013AD: 68 04 80 40 00     push        408004h
  004013B2: 68 00 80 40 00     push        408000h
  004013B7: E8 BF 00 00 00     call        0040147B
  004013BC: 83 C4 10           add         esp,10h
  004013BF: C3                 ret
  004013C0: 6A 00              push        0
  004013C2: 6A 00              push        0
  004013C4: FF 74 24 0C        push        dword ptr [esp+0Ch]
  004013C8: E8 15 00 00 00     call        004013E2
  004013CD: 83 C4 0C           add         esp,0Ch
  004013D0: C3                 ret
  004013D1: 6A 00              push        0
  004013D3: 6A 01              push        1
  004013D5: FF 74 24 0C        push        dword ptr [esp+0Ch]
  004013D9: E8 04 00 00 00     call        004013E2
  004013DE: 83 C4 0C           add         esp,0Ch
  004013E1: C3                 ret
  004013E2: 57                 push        edi
  004013E3: 6A 01              push        1
  004013E5: 5F                 pop         edi
  004013E6: 39 3D 54 A9 40 00  cmp         dword ptr ds:[0040A954h],edi
  004013EC: 75 11              jne         004013FF
  004013EE: FF 74 24 08        push        dword ptr [esp+8]
  004013F2: FF 15 10 70 40 00  call        dword ptr ds:[00407010h]
  004013F8: 50                 push        eax
  004013F9: FF 15 0C 70 40 00  call        dword ptr ds:[0040700Ch]
  004013FF: 83 7C 24 0C 00     cmp         dword ptr [esp+0Ch],0
  00401404: 53                 push        ebx
  00401405: 8B 5C 24 14        mov         ebx,dword ptr [esp+14h]
  00401409: 89 3D 50 A9 40 00  mov         dword ptr ds:[0040A950h],edi
  0040140F: 88 1D 4C A9 40 00  mov         byte ptr ds:[0040A94Ch],bl
  00401415: 75 3C              jne         00401453
  00401417: A1 50 BE 40 00     mov         eax,dword ptr ds:[0040BE50h]
  0040141C: 85 C0              test        eax,eax
  0040141E: 74 22              je          00401442
  00401420: 8B 0D 4C BE 40 00  mov         ecx,dword ptr ds:[0040BE4Ch]
  00401426: 56                 push        esi
  00401427: 8D 71 FC           lea         esi,[ecx-4]
  0040142A: 3B F0              cmp         esi,eax
  0040142C: 72 13              jb          00401441
  0040142E: 8B 06              mov         eax,dword ptr [esi]
  00401430: 85 C0              test        eax,eax
  00401432: 74 02              je          00401436
  00401434: FF D0              call        eax
  00401436: 83 EE 04           sub         esi,4
  00401439: 3B 35 50 BE 40 00  cmp         esi,dword ptr ds:[0040BE50h]
  0040143F: 73 ED              jae         0040142E
  00401441: 5E                 pop         esi
  00401442: 68 20 80 40 00     push        408020h
  00401447: 68 18 80 40 00     push        408018h
  0040144C: E8 2A 00 00 00     call        0040147B
  00401451: 59                 pop         ecx
  00401452: 59                 pop         ecx
  00401453: 68 28 80 40 00     push        408028h
  00401458: 68 24 80 40 00     push        408024h
  0040145D: E8 19 00 00 00     call        0040147B
  00401462: 59                 pop         ecx
  00401463: 59                 pop         ecx
  00401464: 85 DB              test        ebx,ebx
  00401466: 5B                 pop         ebx
  00401467: 75 10              jne         00401479
  00401469: FF 74 24 08        push        dword ptr [esp+8]
  0040146D: 89 3D 54 A9 40 00  mov         dword ptr ds:[0040A954h],edi
  00401473: FF 15 08 70 40 00  call        dword ptr ds:[00407008h]
  00401479: 5F                 pop         edi
  0040147A: C3                 ret
  0040147B: 56                 push        esi
  0040147C: 8B 74 24 08        mov         esi,dword ptr [esp+8]
  00401480: 3B 74 24 0C        cmp         esi,dword ptr [esp+0Ch]
  00401484: 73 0D              jae         00401493
  00401486: 8B 06              mov         eax,dword ptr [esi]
  00401488: 85 C0              test        eax,eax
  0040148A: 74 02              je          0040148E
  0040148C: FF D0              call        eax
  0040148E: 83 C6 04           add         esi,4
  00401491: EB ED              jmp         00401480
  00401493: 5E                 pop         esi
  00401494: C3                 ret
  00401495: 55                 push        ebp
  00401496: 8B EC              mov         ebp,esp
  00401498: 51                 push        ecx
  00401499: 51                 push        ecx
  0040149A: 53                 push        ebx
  0040149B: 8B 5D 0C           mov         ebx,dword ptr [ebp+0Ch]
  0040149E: 56                 push        esi
  0040149F: 57                 push        edi
  004014A0: 6A 5C              push        5Ch
  004014A2: 53                 push        ebx
  004014A3: 8B FB              mov         edi,ebx
  004014A5: E8 26 1A 00 00     call        00402ED0
  004014AA: 6A 2F              push        2Fh
  004014AC: 53                 push        ebx
  004014AD: 8B F0              mov         esi,eax
  004014AF: E8 1C 1A 00 00     call        00402ED0
  004014B4: 83 C4 10           add         esp,10h
  004014B7: 85 C0              test        eax,eax
  004014B9: 75 45              jne         00401500
  004014BB: 85 F6              test        esi,esi
  004014BD: 75 4B              jne         0040150A
  004014BF: 6A 3A              push        3Ah
  004014C1: 53                 push        ebx
  004014C2: E8 0A 1C 00 00     call        004030D1
  004014C7: 8B F0              mov         esi,eax
  004014C9: 59                 pop         ecx
  004014CA: 85 F6              test        esi,esi
  004014CC: 59                 pop         ecx
  004014CD: 75 3B              jne         0040150A
  004014CF: 53                 push        ebx
  004014D0: E8 5B 1A 00 00     call        00402F30
  004014D5: 83 C0 03           add         eax,3
  004014D8: 50                 push        eax
  004014D9: E8 41 1B 00 00     call        0040301F
  004014DE: 8B F8              mov         edi,eax
  004014E0: 59                 pop         ecx
  004014E1: 85 FF              test        edi,edi
  004014E3: 59                 pop         ecx
  004014E4: 74 7D              je          00401563
  004014E6: 68 28 71 40 00     push        407128h
  004014EB: 57                 push        edi
  004014EC: E8 EF 18 00 00     call        00402DE0
  004014F1: 53                 push        ebx
  004014F2: 57                 push        edi
  004014F3: E8 F8 18 00 00     call        00402DF0
  004014F8: 83 C4 10           add         esp,10h
  004014FB: 8D 77 02           lea         esi,[edi+2]
  004014FE: EB 0A              jmp         0040150A
  00401500: 85 F6              test        esi,esi
  00401502: 74 04              je          00401508
  00401504: 3B C6              cmp         eax,esi
  00401506: 76 02              jbe         0040150A
  00401508: 8B F0              mov         esi,eax
  0040150A: 83 4D F8 FF        or          dword ptr [ebp-8],0FFFFFFFFh
  0040150E: 6A 2E              push        2Eh
  00401510: 56                 push        esi
  00401511: E8 BA 19 00 00     call        00402ED0
  00401516: 59                 pop         ecx
  00401517: 85 C0              test        eax,eax
  00401519: 59                 pop         ecx
  0040151A: 74 2D              je          00401549
  0040151C: 6A 00              push        0
  0040151E: 57                 push        edi
  0040151F: E8 0B 01 00 00     call        0040162F
  00401524: 59                 pop         ecx
  00401525: 83 F8 FF           cmp         eax,0FFFFFFFFh
  00401528: 59                 pop         ecx
  00401529: 0F 84 9C 00 00 00  je          004015CB
  0040152F: FF 75 14           push        dword ptr [ebp+14h]
  00401532: FF 75 10           push        dword ptr [ebp+10h]
  00401535: 57                 push        edi
  00401536: FF 75 08           push        dword ptr [ebp+8]
  00401539: E8 A0 00 00 00     call        004015DE
  0040153E: 83 C4 10           add         esp,10h
  00401541: 89 45 F8           mov         dword ptr [ebp-8],eax
  00401544: E9 82 00 00 00     jmp         004015CB
  00401549: 57                 push        edi
  0040154A: E8 E1 19 00 00     call        00402F30
  0040154F: 83 C0 05           add         eax,5
  00401552: 50                 push        eax
  00401553: E8 C7 1A 00 00     call        0040301F
  00401558: 8B D8              mov         ebx,eax
  0040155A: 59                 pop         ecx
  0040155B: 85 DB              test        ebx,ebx
  0040155D: 59                 pop         ecx
  0040155E: 89 5D FC           mov         dword ptr [ebp-4],ebx
  00401561: 75 05              jne         00401568
  00401563: 83 C8 FF           or          eax,0FFFFFFFFh
  00401566: EB 71              jmp         004015D9
  00401568: 57                 push        edi
  00401569: 53                 push        ebx
  0040156A: E8 71 18 00 00     call        00402DE0
  0040156F: 57                 push        edi
  00401570: E8 BB 19 00 00     call        00402F30
  00401575: 8B F0              mov         esi,eax
  00401577: 83 C4 0C           add         esp,0Ch
  0040157A: 03 F3              add         esi,ebx
  0040157C: BB 54 80 40 00     mov         ebx,408054h
  00401581: FF 33              push        dword ptr [ebx]
  00401583: 56                 push        esi
  00401584: E8 57 18 00 00     call        00402DE0
  00401589: 6A 00              push        0
  0040158B: FF 75 FC           push        dword ptr [ebp-4]
  0040158E: E8 9C 00 00 00     call        0040162F
  00401593: 83 C4 10           add         esp,10h
  00401596: 83 F8 FF           cmp         eax,0FFFFFFFFh
  00401599: 75 0D              jne         004015A8
  0040159B: 83 EB 04           sub         ebx,4
  0040159E: 81 FB 48 80 40 00  cmp         ebx,408048h
  004015A4: 7D DB              jge         00401581
  004015A6: EB 17              jmp         004015BF
  004015A8: FF 75 14           push        dword ptr [ebp+14h]
  004015AB: FF 75 10           push        dword ptr [ebp+10h]
  004015AE: FF 75 FC           push        dword ptr [ebp-4]
  004015B1: FF 75 08           push        dword ptr [ebp+8]
  004015B4: E8 25 00 00 00     call        004015DE
  004015B9: 83 C4 10           add         esp,10h
  004015BC: 89 45 F8           mov         dword ptr [ebp-8],eax
  004015BF: FF 75 FC           push        dword ptr [ebp-4]
  004015C2: E8 A9 17 00 00     call        00402D70
  004015C7: 8B 5D 0C           mov         ebx,dword ptr [ebp+0Ch]
  004015CA: 59                 pop         ecx
  004015CB: 3B FB              cmp         edi,ebx
  004015CD: 74 07              je          004015D6
  004015CF: 57                 push        edi
  004015D0: E8 9B 17 00 00     call        00402D70
  004015D5: 59                 pop         ecx
  004015D6: 8B 45 F8           mov         eax,dword ptr [ebp-8]
  004015D9: 5F                 pop         edi
  004015DA: 5E                 pop         esi
  004015DB: 5B                 pop         ebx
  004015DC: C9                 leave
  004015DD: C3                 ret
  004015DE: 55                 push        ebp
  004015DF: 8B EC              mov         ebp,esp
  004015E1: FF 75 0C           push        dword ptr [ebp+0Ch]
  004015E4: 8D 45 10           lea         eax,[ebp+10h]
  004015E7: 50                 push        eax
  004015E8: 8D 45 14           lea         eax,[ebp+14h]
  004015EB: 50                 push        eax
  004015EC: FF 75 14           push        dword ptr [ebp+14h]
  004015EF: FF 75 10           push        dword ptr [ebp+10h]
  004015F2: E8 2C 1D 00 00     call        00403323
  004015F7: 83 C4 14           add         esp,14h
  004015FA: 83 F8 FF           cmp         eax,0FFFFFFFFh
  004015FD: 75 04              jne         00401603
  004015FF: 0B C0              or          eax,eax
  00401601: 5D                 pop         ebp
  00401602: C3                 ret
  00401603: 56                 push        esi
  00401604: FF 75 10           push        dword ptr [ebp+10h]
  00401607: FF 75 14           push        dword ptr [ebp+14h]
  0040160A: FF 75 0C           push        dword ptr [ebp+0Ch]
  0040160D: FF 75 08           push        dword ptr [ebp+8]
  00401610: E8 2F 1B 00 00     call        00403144
  00401615: FF 75 14           push        dword ptr [ebp+14h]
  00401618: 8B F0              mov         esi,eax
  0040161A: E8 51 17 00 00     call        00402D70
  0040161F: FF 75 10           push        dword ptr [ebp+10h]
  00401622: E8 49 17 00 00     call        00402D70
  00401627: 83 C4 18           add         esp,18h
  0040162A: 8B C6              mov         eax,esi
  0040162C: 5E                 pop         esi
  0040162D: 5D                 pop         ebp
  0040162E: C3                 ret
  0040162F: FF 74 24 04        push        dword ptr [esp+4]
  00401633: FF 15 18 70 40 00  call        dword ptr ds:[00407018h]
  00401639: 83 F8 FF           cmp         eax,0FFFFFFFFh
  0040163C: 75 11              jne         0040164F
  0040163E: FF 15 14 70 40 00  call        dword ptr ds:[00407014h]
  00401644: 50                 push        eax
  00401645: E8 DD 1E 00 00     call        00403527
  0040164A: 59                 pop         ecx
  0040164B: 83 C8 FF           or          eax,0FFFFFFFFh
  0040164E: C3                 ret
  0040164F: A8 01              test        al,1
  00401651: 74 1D              je          00401670
  00401653: F6 44 24 08 02     test        byte ptr [esp+8],2
  00401658: 74 16              je          00401670
  0040165A: C7 05 0C A9 40 00  mov         dword ptr ds:[0040A90Ch],0Dh
            0D 00 00 00
  00401664: C7 05 10 A9 40 00  mov         dword ptr ds:[0040A910h],5
            05 00 00 00
  0040166E: EB DB              jmp         0040164B
  00401670: 33 C0              xor         eax,eax
  00401672: C3                 ret
  00401673: 83 3D 44 BE 40 00  cmp         dword ptr ds:[0040BE44h],0
            00
  0040167A: 53                 push        ebx
  0040167B: 56                 push        esi
  0040167C: 8B 35 34 A9 40 00  mov         esi,dword ptr ds:[0040A934h]
  00401682: 57                 push        edi
  00401683: 74 65              je          004016EA
  00401685: 85 F6              test        esi,esi
  00401687: 75 1B              jne         004016A4
  00401689: 39 35 3C A9 40 00  cmp         dword ptr ds:[0040A93Ch],esi
  0040168F: 74 59              je          004016EA
  00401691: E8 37 1F 00 00     call        004035CD
  00401696: 85 C0              test        eax,eax
  00401698: 75 50              jne         004016EA
  0040169A: 8B 35 34 A9 40 00  mov         esi,dword ptr ds:[0040A934h]
  004016A0: 85 F6              test        esi,esi
  004016A2: 74 46              je          004016EA
  004016A4: 8B 5C 24 10        mov         ebx,dword ptr [esp+10h]
  004016A8: 85 DB              test        ebx,ebx
  004016AA: 74 3E              je          004016EA
  004016AC: 53                 push        ebx
  004016AD: E8 7E 18 00 00     call        00402F30
  004016B2: 59                 pop         ecx
  004016B3: 8B F8              mov         edi,eax
  004016B5: 8B 06              mov         eax,dword ptr [esi]
  004016B7: 85 C0              test        eax,eax
  004016B9: 74 2F              je          004016EA
  004016BB: 50                 push        eax
  004016BC: E8 6F 18 00 00     call        00402F30
  004016C1: 3B C7              cmp         eax,edi
  004016C3: 59                 pop         ecx
  004016C4: 76 17              jbe         004016DD
  004016C6: 8B 06              mov         eax,dword ptr [esi]
  004016C8: 80 3C 38 3D        cmp         byte ptr [eax+edi],3Dh
  004016CC: 75 0F              jne         004016DD
  004016CE: 57                 push        edi
  004016CF: 53                 push        ebx
  004016D0: 50                 push        eax
  004016D1: E8 B8 1E 00 00     call        0040358E
  004016D6: 83 C4 0C           add         esp,0Ch
  004016D9: 85 C0              test        eax,eax
  004016DB: 74 05              je          004016E2
  004016DD: 83 C6 04           add         esi,4
  004016E0: EB D3              jmp         004016B5
  004016E2: 8B 06              mov         eax,dword ptr [esi]
  004016E4: 8D 44 38 01        lea         eax,[eax+edi+1]
  004016E8: EB 02              jmp         004016EC
  004016EA: 33 C0              xor         eax,eax
  004016EC: 5F                 pop         edi
  004016ED: 5E                 pop         esi
  004016EE: 5B                 pop         ebx
  004016EF: C3                 ret
  004016F0: 56                 push        esi
  004016F1: 8B 74 24 08        mov         esi,dword ptr [esp+8]
  004016F5: FF 76 10           push        dword ptr [esi+10h]
  004016F8: E8 3E 1F 00 00     call        0040363B
  004016FD: 85 C0              test        eax,eax
  004016FF: 59                 pop         ecx
  00401700: 74 77              je          00401779
  00401702: 81 FE 80 80 40 00  cmp         esi,408080h
  00401708: 75 04              jne         0040170E
  0040170A: 33 C0              xor         eax,eax
  0040170C: EB 0B              jmp         00401719
  0040170E: 81 FE A0 80 40 00  cmp         esi,4080A0h
  00401714: 75 63              jne         00401779
  00401716: 6A 01              push        1
  00401718: 58                 pop         eax
  00401719: FF 05 60 A9 40 00  inc         dword ptr ds:[0040A960h]
  0040171F: 66 F7 46 0C 0C 01  test        word ptr [esi+0Ch],10Ch
  00401725: 75 52              jne         00401779
  00401727: 83 3C 85 58 A9 40  cmp         dword ptr [eax*4+0040A958h],0
            00 00
  0040172F: 53                 push        ebx
  00401730: 57                 push        edi
  00401731: 8D 3C 85 58 A9 40  lea         edi,[eax*4+0040A958h]
            00
  00401738: BB 00 10 00 00     mov         ebx,1000h
  0040173D: 75 20              jne         0040175F
  0040173F: 53                 push        ebx
  00401740: E8 DA 18 00 00     call        0040301F
  00401745: 85 C0              test        eax,eax
  00401747: 59                 pop         ecx
  00401748: 89 07              mov         dword ptr [edi],eax
  0040174A: 75 13              jne         0040175F
  0040174C: 8D 46 14           lea         eax,[esi+14h]
  0040174F: 6A 02              push        2
  00401751: 89 46 08           mov         dword ptr [esi+8],eax
  00401754: 89 06              mov         dword ptr [esi],eax
  00401756: 58                 pop         eax
  00401757: 89 46 18           mov         dword ptr [esi+18h],eax
  0040175A: 89 46 04           mov         dword ptr [esi+4],eax
  0040175D: EB 0D              jmp         0040176C
  0040175F: 8B 3F              mov         edi,dword ptr [edi]
  00401761: 89 5E 18           mov         dword ptr [esi+18h],ebx
  00401764: 89 7E 08           mov         dword ptr [esi+8],edi
  00401767: 89 3E              mov         dword ptr [esi],edi
  00401769: 89 5E 04           mov         dword ptr [esi+4],ebx
  0040176C: 66 81 4E 0C 02 11  or          word ptr [esi+0Ch],1102h
  00401772: 6A 01              push        1
  00401774: 58                 pop         eax
  00401775: 5F                 pop         edi
  00401776: 5B                 pop         ebx
  00401777: 5E                 pop         esi
  00401778: C3                 ret
  00401779: 33 C0              xor         eax,eax
  0040177B: 5E                 pop         esi
  0040177C: C3                 ret
  0040177D: 83 7C 24 04 00     cmp         dword ptr [esp+4],0
  00401782: 56                 push        esi
  00401783: 74 22              je          004017A7
  00401785: 8B 74 24 0C        mov         esi,dword ptr [esp+0Ch]
  00401789: F6 46 0D 10        test        byte ptr [esi+0Dh],10h
  0040178D: 74 29              je          004017B8
  0040178F: 56                 push        esi
  00401790: E8 07 1F 00 00     call        0040369C
  00401795: 80 66 0D EE        and         byte ptr [esi+0Dh],0EEh
  00401799: 83 66 18 00        and         dword ptr [esi+18h],0
  0040179D: 83 26 00           and         dword ptr [esi],0
  004017A0: 83 66 08 00        and         dword ptr [esi+8],0
  004017A4: 59                 pop         ecx
  004017A5: 5E                 pop         esi
  004017A6: C3                 ret
  004017A7: 8B 44 24 0C        mov         eax,dword ptr [esp+0Ch]
  004017AB: F6 40 0D 10        test        byte ptr [eax+0Dh],10h
  004017AF: 74 07              je          004017B8
  004017B1: 50                 push        eax
  004017B2: E8 E5 1E 00 00     call        0040369C
  004017B7: 59                 pop         ecx
  004017B8: 5E                 pop         esi
  004017B9: C3                 ret
  004017BA: 55                 push        ebp
  004017BB: 8B EC              mov         ebp,esp
  004017BD: 81 EC 4C 02 00 00  sub         esp,24Ch
  004017C3: 53                 push        ebx
  004017C4: 56                 push        esi
  004017C5: 8B 75 0C           mov         esi,dword ptr [ebp+0Ch]
  004017C8: 33 C9              xor         ecx,ecx
  004017CA: 57                 push        edi
  004017CB: 89 4D F0           mov         dword ptr [ebp-10h],ecx
  004017CE: 8A 1E              mov         bl,byte ptr [esi]
  004017D0: 46                 inc         esi
  004017D1: 84 DB              test        bl,bl
  004017D3: 89 4D EC           mov         dword ptr [ebp-14h],ecx
  004017D6: 89 4D D0           mov         dword ptr [ebp-30h],ecx
  004017D9: 89 75 0C           mov         dword ptr [ebp+0Ch],esi
  004017DC: 0F 84 4E 07 00 00  je          00401F30
  004017E2: BF 00 08 00 00     mov         edi,800h
  004017E7: BA 00 02 00 00     mov         edx,200h
  004017EC: EB 0D              jmp         004017FB
  004017EE: 8B 4D C4           mov         ecx,dword ptr [ebp-3Ch]
  004017F1: BA 00 02 00 00     mov         edx,200h
  004017F6: BF 00 08 00 00     mov         edi,800h
  004017FB: 83 7D EC 00        cmp         dword ptr [ebp-14h],0
  004017FF: 0F 8C 2B 07 00 00  jl          00401F30
  00401805: 80 FB 20           cmp         bl,20h
  00401808: 7C 13              jl          0040181D
  0040180A: 80 FB 78           cmp         bl,78h
  0040180D: 7F 0E              jg          0040181D
  0040180F: 0F BE C3           movsx       eax,bl
  00401812: 8A 80 0C 71 40 00  mov         al,byte ptr [eax+0040710Ch]
  00401818: 83 E0 0F           and         eax,0Fh
  0040181B: EB 02              jmp         0040181F
  0040181D: 33 C0              xor         eax,eax
  0040181F: 0F BE 84 C1 2C 71  movsx       eax,byte ptr [ecx+eax*8+0040712Ch]
            40 00
  00401827: C1 F8 04           sar         eax,4
  0040182A: 83 F8 07           cmp         eax,7
  0040182D: 89 45 C4           mov         dword ptr [ebp-3Ch],eax
  00401830: 0F 87 E9 06 00 00  ja          00401F1F
  00401836: FF 24 85 38 1F 40  jmp         dword ptr [eax*4+00401F38h]
            00
  0040183D: 33 C0              xor         eax,eax
  0040183F: 83 4D F8 FF        or          dword ptr [ebp-8],0FFFFFFFFh
  00401843: 89 45 C0           mov         dword ptr [ebp-40h],eax
  00401846: 89 45 C8           mov         dword ptr [ebp-38h],eax
  00401849: 89 45 D8           mov         dword ptr [ebp-28h],eax
  0040184C: 89 45 DC           mov         dword ptr [ebp-24h],eax
  0040184F: 89 45 FC           mov         dword ptr [ebp-4],eax
  00401852: 89 45 D4           mov         dword ptr [ebp-2Ch],eax
  00401855: E9 C5 06 00 00     jmp         00401F1F
  0040185A: 0F BE C3           movsx       eax,bl
  0040185D: 83 E8 20           sub         eax,20h
  00401860: 74 3B              je          0040189D
  00401862: 83 E8 03           sub         eax,3
  00401865: 74 2D              je          00401894
  00401867: 83 E8 08           sub         eax,8
  0040186A: 74 1F              je          0040188B
  0040186C: 48                 dec         eax
  0040186D: 48                 dec         eax
  0040186E: 74 12              je          00401882
  00401870: 83 E8 03           sub         eax,3
  00401873: 0F 85 A6 06 00 00  jne         00401F1F
  00401879: 83 4D FC 08        or          dword ptr [ebp-4],8
  0040187D: E9 9D 06 00 00     jmp         00401F1F
  00401882: 83 4D FC 04        or          dword ptr [ebp-4],4
  00401886: E9 94 06 00 00     jmp         00401F1F
  0040188B: 83 4D FC 01        or          dword ptr [ebp-4],1
  0040188F: E9 8B 06 00 00     jmp         00401F1F
  00401894: 80 4D FC 80        or          byte ptr [ebp-4],80h
  00401898: E9 82 06 00 00     jmp         00401F1F
  0040189D: 83 4D FC 02        or          dword ptr [ebp-4],2
  004018A1: E9 79 06 00 00     jmp         00401F1F
  004018A6: 80 FB 2A           cmp         bl,2Ah
  004018A9: 75 23              jne         004018CE
  004018AB: 8D 45 10           lea         eax,[ebp+10h]
  004018AE: 50                 push        eax
  004018AF: E8 42 07 00 00     call        00401FF6
  004018B4: 85 C0              test        eax,eax
  004018B6: 59                 pop         ecx
  004018B7: 89 45 D8           mov         dword ptr [ebp-28h],eax
  004018BA: 0F 8D 5F 06 00 00  jge         00401F1F
  004018C0: 83 4D FC 04        or          dword ptr [ebp-4],4
  004018C4: F7 D8              neg         eax
  004018C6: 89 45 D8           mov         dword ptr [ebp-28h],eax
  004018C9: E9 51 06 00 00     jmp         00401F1F
  004018CE: 8B 45 D8           mov         eax,dword ptr [ebp-28h]
  004018D1: 0F BE CB           movsx       ecx,bl
  004018D4: 8D 04 80           lea         eax,[eax+eax*4]
  004018D7: 8D 44 41 D0        lea         eax,[ecx+eax*2-30h]
  004018DB: EB E9              jmp         004018C6
  004018DD: 83 65 F8 00        and         dword ptr [ebp-8],0
  004018E1: E9 39 06 00 00     jmp         00401F1F
  004018E6: 80 FB 2A           cmp         bl,2Ah
  004018E9: 75 1E              jne         00401909
  004018EB: 8D 45 10           lea         eax,[ebp+10h]
  004018EE: 50                 push        eax
  004018EF: E8 02 07 00 00     call        00401FF6
  004018F4: 85 C0              test        eax,eax
  004018F6: 59                 pop         ecx
  004018F7: 89 45 F8           mov         dword ptr [ebp-8],eax
  004018FA: 0F 8D 1F 06 00 00  jge         00401F1F
  00401900: 83 4D F8 FF        or          dword ptr [ebp-8],0FFFFFFFFh
  00401904: E9 16 06 00 00     jmp         00401F1F
  00401909: 8B 45 F8           mov         eax,dword ptr [ebp-8]
  0040190C: 0F BE CB           movsx       ecx,bl
  0040190F: 8D 04 80           lea         eax,[eax+eax*4]
  00401912: 8D 44 41 D0        lea         eax,[ecx+eax*2-30h]
  00401916: 89 45 F8           mov         dword ptr [ebp-8],eax
  00401919: E9 01 06 00 00     jmp         00401F1F
  0040191E: 80 FB 49           cmp         bl,49h
  00401921: 74 2D              je          00401950
  00401923: 80 FB 68           cmp         bl,68h
  00401926: 74 1F              je          00401947
  00401928: 80 FB 6C           cmp         bl,6Ch
  0040192B: 74 11              je          0040193E
  0040192D: 80 FB 77           cmp         bl,77h
  00401930: 0F 85 E9 05 00 00  jne         00401F1F
  00401936: 09 7D FC           or          dword ptr [ebp-4],edi
  00401939: E9 E1 05 00 00     jmp         00401F1F
  0040193E: 83 4D FC 10        or          dword ptr [ebp-4],10h
  00401942: E9 D8 05 00 00     jmp         00401F1F
  00401947: 83 4D FC 20        or          dword ptr [ebp-4],20h
  0040194B: E9 CF 05 00 00     jmp         00401F1F
  00401950: 80 3E 36           cmp         byte ptr [esi],36h
  00401953: 75 14              jne         00401969
  00401955: 80 7E 01 34        cmp         byte ptr [esi+1],34h
  00401959: 75 0E              jne         00401969
  0040195B: 46                 inc         esi
  0040195C: 46                 inc         esi
  0040195D: 80 4D FD 80        or          byte ptr [ebp-3],80h
  00401961: 89 75 0C           mov         dword ptr [ebp+0Ch],esi
  00401964: E9 B6 05 00 00     jmp         00401F1F
  00401969: 83 65 C4 00        and         dword ptr [ebp-3Ch],0
  0040196D: 8B 0D A8 85 40 00  mov         ecx,dword ptr ds:[004085A8h]
  00401973: 83 65 D4 00        and         dword ptr [ebp-2Ch],0
  00401977: 0F B6 C3           movzx       eax,bl
  0040197A: F6 44 41 01 80     test        byte ptr [ecx+eax*2+1],80h
  0040197F: 74 19              je          0040199A
  00401981: 8D 45 EC           lea         eax,[ebp-14h]
  00401984: 50                 push        eax
  00401985: FF 75 08           push        dword ptr [ebp+8]
  00401988: 0F BE C3           movsx       eax,bl
  0040198B: 50                 push        eax
  0040198C: E8 C7 05 00 00     call        00401F58
  00401991: 8A 1E              mov         bl,byte ptr [esi]
  00401993: 83 C4 0C           add         esp,0Ch
  00401996: 46                 inc         esi
  00401997: 89 75 0C           mov         dword ptr [ebp+0Ch],esi
  0040199A: 8D 45 EC           lea         eax,[ebp-14h]
  0040199D: 50                 push        eax
  0040199E: FF 75 08           push        dword ptr [ebp+8]
  004019A1: 0F BE C3           movsx       eax,bl
  004019A4: 50                 push        eax
  004019A5: E8 AE 05 00 00     call        00401F58
  004019AA: 83 C4 0C           add         esp,0Ch
  004019AD: E9 6D 05 00 00     jmp         00401F1F
  004019B2: 0F BE C3           movsx       eax,bl
  004019B5: 83 F8 67           cmp         eax,67h
  004019B8: 0F 8F 38 02 00 00  jg          00401BF6
  004019BE: 83 F8 65           cmp         eax,65h
  004019C1: 0F 8D 96 00 00 00  jge         00401A5D
  004019C7: 83 F8 58           cmp         eax,58h
  004019CA: 0F 8F EC 00 00 00  jg          00401ABC
  004019D0: 0F 84 94 02 00 00  je          00401C6A
  004019D6: 83 E8 43           sub         eax,43h
  004019D9: 0F 84 A1 00 00 00  je          00401A80
  004019DF: 48                 dec         eax
  004019E0: 48                 dec         eax
  004019E1: 74 70              je          00401A53
  004019E3: 48                 dec         eax
  004019E4: 48                 dec         eax
  004019E5: 74 6C              je          00401A53
  004019E7: 83 E8 0C           sub         eax,0Ch
  004019EA: 0F 85 1E 04 00 00  jne         00401E0E
  004019F0: 66 F7 45 FC 30 08  test        word ptr [ebp-4],830h
  004019F6: 75 03              jne         004019FB
  004019F8: 09 7D FC           or          dword ptr [ebp-4],edi
  004019FB: 83 7D F8 FF        cmp         dword ptr [ebp-8],0FFFFFFFFh
  004019FF: BE FF FF FF 7F     mov         esi,7FFFFFFFh
  00401A04: 74 03              je          00401A09
  00401A06: 8B 75 F8           mov         esi,dword ptr [ebp-8]
  00401A09: 8D 45 10           lea         eax,[ebp+10h]
  00401A0C: 50                 push        eax
  00401A0D: E8 E4 05 00 00     call        00401FF6
  00401A12: 66 F7 45 FC 10 08  test        word ptr [ebp-4],810h
  00401A18: 59                 pop         ecx
  00401A19: 8B C8              mov         ecx,eax
  00401A1B: 89 4D F4           mov         dword ptr [ebp-0Ch],ecx
  00401A1E: 0F 84 1A 02 00 00  je          00401C3E
  00401A24: 85 C9              test        ecx,ecx
  00401A26: 75 09              jne         00401A31
  00401A28: 8B 0D 5C 80 40 00  mov         ecx,dword ptr ds:[0040805Ch]
  00401A2E: 89 4D F4           mov         dword ptr [ebp-0Ch],ecx
  00401A31: C7 45 D4 01 00 00  mov         dword ptr [ebp-2Ch],1
            00
  00401A38: 8B C1              mov         eax,ecx
  00401A3A: 8B D6              mov         edx,esi
  00401A3C: 4E                 dec         esi
  00401A3D: 85 D2              test        edx,edx
  00401A3F: 0F 84 F0 01 00 00  je          00401C35
  00401A45: 66 83 38 00        cmp         word ptr [eax],0
  00401A49: 0F 84 E6 01 00 00  je          00401C35
  00401A4F: 40                 inc         eax
  00401A50: 40                 inc         eax
  00401A51: EB E7              jmp         00401A3A
  00401A53: C7 45 C0 01 00 00  mov         dword ptr [ebp-40h],1
            00
  00401A5A: 80 C3 20           add         bl,20h
  00401A5D: 83 4D FC 40        or          dword ptr [ebp-4],40h
  00401A61: 83 7D F8 00        cmp         dword ptr [ebp-8],0
  00401A65: 8D BD B4 FD FF FF  lea         edi,[ebp+FFFFFDB4h]
  00401A6B: 89 7D F4           mov         dword ptr [ebp-0Ch],edi
  00401A6E: 0F 8D CD 00 00 00  jge         00401B41
  00401A74: C7 45 F8 06 00 00  mov         dword ptr [ebp-8],6
            00
  00401A7B: E9 06 01 00 00     jmp         00401B86
  00401A80: 66 F7 45 FC 30 08  test        word ptr [ebp-4],830h
  00401A86: 75 03              jne         00401A8B
  00401A88: 09 7D FC           or          dword ptr [ebp-4],edi
  00401A8B: 66 F7 45 FC 10 08  test        word ptr [ebp-4],810h
  00401A91: 8D 45 10           lea         eax,[ebp+10h]
  00401A94: 50                 push        eax
  00401A95: 74 3B              je          00401AD2
  00401A97: E8 77 05 00 00     call        00402013
  00401A9C: 50                 push        eax
  00401A9D: 8D 85 B4 FD FF FF  lea         eax,[ebp+FFFFFDB4h]
  00401AA3: 50                 push        eax
  00401AA4: E8 C5 1C 00 00     call        0040376E
  00401AA9: 83 C4 0C           add         esp,0Ch
  00401AAC: 89 45 F0           mov         dword ptr [ebp-10h],eax
  00401AAF: 85 C0              test        eax,eax
  00401AB1: 7D 32              jge         00401AE5
  00401AB3: C7 45 C8 01 00 00  mov         dword ptr [ebp-38h],1
            00
  00401ABA: EB 29              jmp         00401AE5
  00401ABC: 83 E8 5A           sub         eax,5Ah
  00401ABF: 74 32              je          00401AF3
  00401AC1: 83 E8 09           sub         eax,9
  00401AC4: 74 C5              je          00401A8B
  00401AC6: 48                 dec         eax
  00401AC7: 0F 84 02 02 00 00  je          00401CCF
  00401ACD: E9 3C 03 00 00     jmp         00401E0E
  00401AD2: E8 1F 05 00 00     call        00401FF6
  00401AD7: 59                 pop         ecx
  00401AD8: 88 85 B4 FD FF FF  mov         byte ptr [ebp+FFFFFDB4h],al
  00401ADE: C7 45 F0 01 00 00  mov         dword ptr [ebp-10h],1
            00
  00401AE5: 8D 85 B4 FD FF FF  lea         eax,[ebp+FFFFFDB4h]
  00401AEB: 89 45 F4           mov         dword ptr [ebp-0Ch],eax
  00401AEE: E9 1B 03 00 00     jmp         00401E0E
  00401AF3: 8D 45 10           lea         eax,[ebp+10h]
  00401AF6: 50                 push        eax
  00401AF7: E8 FA 04 00 00     call        00401FF6
  00401AFC: 85 C0              test        eax,eax
  00401AFE: 59                 pop         ecx
  00401AFF: 74 32              je          00401B33
  00401B01: 8B 48 04           mov         ecx,dword ptr [eax+4]
  00401B04: 85 C9              test        ecx,ecx
  00401B06: 74 2B              je          00401B33
  00401B08: 85 7D FC           test        dword ptr [ebp-4],edi
  00401B0B: 74 17              je          00401B24
  00401B0D: 0F BF 00           movsx       eax,word ptr [eax]
  00401B10: D1 E8              shr         eax,1
  00401B12: 89 4D F4           mov         dword ptr [ebp-0Ch],ecx
  00401B15: 89 45 F0           mov         dword ptr [ebp-10h],eax
  00401B18: C7 45 D4 01 00 00  mov         dword ptr [ebp-2Ch],1
            00
  00401B1F: E9 EA 02 00 00     jmp         00401E0E
  00401B24: 83 65 D4 00        and         dword ptr [ebp-2Ch],0
  00401B28: 89 4D F4           mov         dword ptr [ebp-0Ch],ecx
  00401B2B: 0F BF 00           movsx       eax,word ptr [eax]
  00401B2E: E9 D8 02 00 00     jmp         00401E0B
  00401B33: A1 58 80 40 00     mov         eax,dword ptr ds:[00408058h]
  00401B38: 89 45 F4           mov         dword ptr [ebp-0Ch],eax
  00401B3B: 50                 push        eax
  00401B3C: E9 AA 00 00 00     jmp         00401BEB
  00401B41: 75 0E              jne         00401B51
  00401B43: 80 FB 67           cmp         bl,67h
  00401B46: 75 3E              jne         00401B86
  00401B48: C7 45 F8 01 00 00  mov         dword ptr [ebp-8],1
            00
  00401B4F: EB 35              jmp         00401B86
  00401B51: 39 55 F8           cmp         dword ptr [ebp-8],edx
  00401B54: 7E 03              jle         00401B59
  00401B56: 89 55 F8           mov         dword ptr [ebp-8],edx
  00401B59: 81 7D F8 A3 00 00  cmp         dword ptr [ebp-8],0A3h
            00
  00401B60: 7E 24              jle         00401B86
  00401B62: 8B 45 F8           mov         eax,dword ptr [ebp-8]
  00401B65: 05 5D 01 00 00     add         eax,15Dh
  00401B6A: 50                 push        eax
  00401B6B: E8 AF 14 00 00     call        0040301F
  00401B70: 85 C0              test        eax,eax
  00401B72: 59                 pop         ecx
  00401B73: 89 45 D0           mov         dword ptr [ebp-30h],eax
  00401B76: 74 07              je          00401B7F
  00401B78: 8B F8              mov         edi,eax
  00401B7A: 89 7D F4           mov         dword ptr [ebp-0Ch],edi
  00401B7D: EB 07              jmp         00401B86
  00401B7F: C7 45 F8 A3 00 00  mov         dword ptr [ebp-8],0A3h
            00
  00401B86: 8B 45 10           mov         eax,dword ptr [ebp+10h]
  00401B89: FF 75 C0           push        dword ptr [ebp-40h]
  00401B8C: 83 C0 08           add         eax,8
  00401B8F: 89 45 10           mov         dword ptr [ebp+10h],eax
  00401B92: FF 75 F8           push        dword ptr [ebp-8]
  00401B95: 8B 48 F8           mov         ecx,dword ptr [eax-8]
  00401B98: 89 4D B4           mov         dword ptr [ebp-4Ch],ecx
  00401B9B: 8B 40 FC           mov         eax,dword ptr [eax-4]
  00401B9E: 89 45 B8           mov         dword ptr [ebp-48h],eax
  00401BA1: 0F BE C3           movsx       eax,bl
  00401BA4: 50                 push        eax
  00401BA5: 8D 45 B4           lea         eax,[ebp-4Ch]
  00401BA8: 57                 push        edi
  00401BA9: 50                 push        eax
  00401BAA: FF 15 90 85 40 00  call        dword ptr ds:[00408590h]
  00401BB0: 8B 75 FC           mov         esi,dword ptr [ebp-4]
  00401BB3: 83 C4 14           add         esp,14h
  00401BB6: 81 E6 80 00 00 00  and         esi,80h
  00401BBC: 74 0E              je          00401BCC
  00401BBE: 83 7D F8 00        cmp         dword ptr [ebp-8],0
  00401BC2: 75 08              jne         00401BCC
  00401BC4: 57                 push        edi
  00401BC5: FF 15 9C 85 40 00  call        dword ptr ds:[0040859Ch]
  00401BCB: 59                 pop         ecx
  00401BCC: 80 FB 67           cmp         bl,67h
  00401BCF: 75 0C              jne         00401BDD
  00401BD1: 85 F6              test        esi,esi
  00401BD3: 75 08              jne         00401BDD
  00401BD5: 57                 push        edi
  00401BD6: FF 15 94 85 40 00  call        dword ptr ds:[00408594h]
  00401BDC: 59                 pop         ecx
  00401BDD: 80 3F 2D           cmp         byte ptr [edi],2Dh
  00401BE0: 75 08              jne         00401BEA
  00401BE2: 80 4D FD 01        or          byte ptr [ebp-3],1
  00401BE6: 47                 inc         edi
  00401BE7: 89 7D F4           mov         dword ptr [ebp-0Ch],edi
  00401BEA: 57                 push        edi
  00401BEB: E8 40 13 00 00     call        00402F30
  00401BF0: 59                 pop         ecx
  00401BF1: E9 15 02 00 00     jmp         00401E0B
  00401BF6: 83 E8 69           sub         eax,69h
  00401BF9: 0F 84 D0 00 00 00  je          00401CCF
  00401BFF: 83 E8 05           sub         eax,5
  00401C02: 0F 84 9D 00 00 00  je          00401CA5
  00401C08: 48                 dec         eax
  00401C09: 0F 84 84 00 00 00  je          00401C93
  00401C0F: 48                 dec         eax
  00401C10: 74 51              je          00401C63
  00401C12: 83 E8 03           sub         eax,3
  00401C15: 0F 84 E0 FD FF FF  je          004019FB
  00401C1B: 48                 dec         eax
  00401C1C: 48                 dec         eax
  00401C1D: 0F 84 B0 00 00 00  je          00401CD3
  00401C23: 83 E8 03           sub         eax,3
  00401C26: 0F 85 E2 01 00 00  jne         00401E0E
  00401C2C: C7 45 CC 27 00 00  mov         dword ptr [ebp-34h],27h
            00
  00401C33: EB 3C              jmp         00401C71
  00401C35: 2B C1              sub         eax,ecx
  00401C37: D1 F8              sar         eax,1
  00401C39: E9 CD 01 00 00     jmp         00401E0B
  00401C3E: 85 C9              test        ecx,ecx
  00401C40: 75 09              jne         00401C4B
  00401C42: 8B 0D 58 80 40 00  mov         ecx,dword ptr ds:[00408058h]
  00401C48: 89 4D F4           mov         dword ptr [ebp-0Ch],ecx
  00401C4B: 8B C1              mov         eax,ecx
  00401C4D: 8B D6              mov         edx,esi
  00401C4F: 4E                 dec         esi
  00401C50: 85 D2              test        edx,edx
  00401C52: 74 08              je          00401C5C
  00401C54: 80 38 00           cmp         byte ptr [eax],0
  00401C57: 74 03              je          00401C5C
  00401C59: 40                 inc         eax
  00401C5A: EB F1              jmp         00401C4D
  00401C5C: 2B C1              sub         eax,ecx
  00401C5E: E9 A8 01 00 00     jmp         00401E0B
  00401C63: C7 45 F8 08 00 00  mov         dword ptr [ebp-8],8
            00
  00401C6A: C7 45 CC 07 00 00  mov         dword ptr [ebp-34h],7
            00
  00401C71: F6 45 FC 80        test        byte ptr [ebp-4],80h
  00401C75: C7 45 F0 10 00 00  mov         dword ptr [ebp-10h],10h
            00
  00401C7C: 74 5C              je          00401CDA
  00401C7E: 8A 45 CC           mov         al,byte ptr [ebp-34h]
  00401C81: C6 45 EA 30        mov         byte ptr [ebp-16h],30h
  00401C85: 04 51              add         al,51h
  00401C87: C7 45 DC 02 00 00  mov         dword ptr [ebp-24h],2
            00
  00401C8E: 88 45 EB           mov         byte ptr [ebp-15h],al
  00401C91: EB 47              jmp         00401CDA
  00401C93: F6 45 FC 80        test        byte ptr [ebp-4],80h
  00401C97: C7 45 F0 08 00 00  mov         dword ptr [ebp-10h],8
            00
  00401C9E: 74 3A              je          00401CDA
  00401CA0: 09 55 FC           or          dword ptr [ebp-4],edx
  00401CA3: EB 35              jmp         00401CDA
  00401CA5: 8D 45 10           lea         eax,[ebp+10h]
  00401CA8: 50                 push        eax
  00401CA9: E8 48 03 00 00     call        00401FF6
  00401CAE: F6 45 FC 20        test        byte ptr [ebp-4],20h
  00401CB2: 59                 pop         ecx
  00401CB3: 74 09              je          00401CBE
  00401CB5: 66 8B 4D EC        mov         cx,word ptr [ebp-14h]
  00401CB9: 66 89 08           mov         word ptr [eax],cx
  00401CBC: EB 05              jmp         00401CC3
  00401CBE: 8B 4D EC           mov         ecx,dword ptr [ebp-14h]
  00401CC1: 89 08              mov         dword ptr [eax],ecx
  00401CC3: C7 45 C8 01 00 00  mov         dword ptr [ebp-38h],1
            00
  00401CCA: E9 3D 02 00 00     jmp         00401F0C
  00401CCF: 83 4D FC 40        or          dword ptr [ebp-4],40h
  00401CD3: C7 45 F0 0A 00 00  mov         dword ptr [ebp-10h],0Ah
            00
  00401CDA: F6 45 FD 80        test        byte ptr [ebp-3],80h
  00401CDE: 74 0C              je          00401CEC
  00401CE0: 8D 45 10           lea         eax,[ebp+10h]
  00401CE3: 50                 push        eax
  00401CE4: E8 1A 03 00 00     call        00402003
  00401CE9: 59                 pop         ecx
  00401CEA: EB 41              jmp         00401D2D
  00401CEC: F6 45 FC 20        test        byte ptr [ebp-4],20h
  00401CF0: 74 21              je          00401D13
  00401CF2: F6 45 FC 40        test        byte ptr [ebp-4],40h
  00401CF6: 8D 45 10           lea         eax,[ebp+10h]
  00401CF9: 50                 push        eax
  00401CFA: 74 0C              je          00401D08
  00401CFC: E8 F5 02 00 00     call        00401FF6
  00401D01: 59                 pop         ecx
  00401D02: 0F BF C0           movsx       eax,ax
  00401D05: 99                 cdq
  00401D06: EB 25              jmp         00401D2D
  00401D08: E8 E9 02 00 00     call        00401FF6
  00401D0D: 59                 pop         ecx
  00401D0E: 0F B7 C0           movzx       eax,ax
  00401D11: EB F2              jmp         00401D05
  00401D13: F6 45 FC 40        test        byte ptr [ebp-4],40h
  00401D17: 8D 45 10           lea         eax,[ebp+10h]
  00401D1A: 50                 push        eax
  00401D1B: 74 08              je          00401D25
  00401D1D: E8 D4 02 00 00     call        00401FF6
  00401D22: 59                 pop         ecx
  00401D23: EB E0              jmp         00401D05
  00401D25: E8 CC 02 00 00     call        00401FF6
  00401D2A: 59                 pop         ecx
  00401D2B: 33 D2              xor         edx,edx
  00401D2D: F6 45 FC 40        test        byte ptr [ebp-4],40h
  00401D31: 74 1D              je          00401D50
  00401D33: 85 D2              test        edx,edx
  00401D35: 7F 19              jg          00401D50
  00401D37: 7C 04              jl          00401D3D
  00401D39: 85 C0              test        eax,eax
  00401D3B: 73 13              jae         00401D50
  00401D3D: F7 D8              neg         eax
  00401D3F: 83 D2 00           adc         edx,0
  00401D42: 89 45 E0           mov         dword ptr [ebp-20h],eax
  00401D45: F7 DA              neg         edx
  00401D47: 80 4D FD 01        or          byte ptr [ebp-3],1
  00401D4B: 89 55 E4           mov         dword ptr [ebp-1Ch],edx
  00401D4E: EB 06              jmp         00401D56
  00401D50: 89 45 E0           mov         dword ptr [ebp-20h],eax
  00401D53: 89 55 E4           mov         dword ptr [ebp-1Ch],edx
  00401D56: F6 45 FD 80        test        byte ptr [ebp-3],80h
  00401D5A: 75 04              jne         00401D60
  00401D5C: 83 65 E4 00        and         dword ptr [ebp-1Ch],0
  00401D60: 83 7D F8 00        cmp         dword ptr [ebp-8],0
  00401D64: 7D 09              jge         00401D6F
  00401D66: C7 45 F8 01 00 00  mov         dword ptr [ebp-8],1
            00
  00401D6D: EB 11              jmp         00401D80
  00401D6F: 83 65 FC F7        and         dword ptr [ebp-4],0FFFFFFF7h
  00401D73: B8 00 02 00 00     mov         eax,200h
  00401D78: 39 45 F8           cmp         dword ptr [ebp-8],eax
  00401D7B: 7E 03              jle         00401D80
  00401D7D: 89 45 F8           mov         dword ptr [ebp-8],eax
  00401D80: 8B 45 E0           mov         eax,dword ptr [ebp-20h]
  00401D83: 0B 45 E4           or          eax,dword ptr [ebp-1Ch]
  00401D86: 75 04              jne         00401D8C
  00401D88: 83 65 DC 00        and         dword ptr [ebp-24h],0
  00401D8C: 8D 45 B3           lea         eax,[ebp-4Dh]
  00401D8F: 89 45 F4           mov         dword ptr [ebp-0Ch],eax
  00401D92: 8B 45 F8           mov         eax,dword ptr [ebp-8]
  00401D95: FF 4D F8           dec         dword ptr [ebp-8]
  00401D98: 85 C0              test        eax,eax
  00401D9A: 7F 08              jg          00401DA4
  00401D9C: 8B 45 E0           mov         eax,dword ptr [ebp-20h]
  00401D9F: 0B 45 E4           or          eax,dword ptr [ebp-1Ch]
  00401DA2: 74 3F              je          00401DE3
  00401DA4: 8B 45 F0           mov         eax,dword ptr [ebp-10h]
  00401DA7: 99                 cdq
  00401DA8: 8B FA              mov         edi,edx
  00401DAA: 8B F0              mov         esi,eax
  00401DAC: 57                 push        edi
  00401DAD: 56                 push        esi
  00401DAE: FF 75 E4           push        dword ptr [ebp-1Ch]
  00401DB1: FF 75 E0           push        dword ptr [ebp-20h]
  00401DB4: E8 97 1A 00 00     call        00403850
  00401DB9: 57                 push        edi
  00401DBA: 56                 push        esi
  00401DBB: FF 75 E4           push        dword ptr [ebp-1Ch]
  00401DBE: 8B D8              mov         ebx,eax
  00401DC0: 83 C3 30           add         ebx,30h
  00401DC3: FF 75 E0           push        dword ptr [ebp-20h]
  00401DC6: E8 15 1A 00 00     call        004037E0
  00401DCB: 83 FB 39           cmp         ebx,39h
  00401DCE: 89 45 E0           mov         dword ptr [ebp-20h],eax
  00401DD1: 89 55 E4           mov         dword ptr [ebp-1Ch],edx
  00401DD4: 7E 03              jle         00401DD9
  00401DD6: 03 5D CC           add         ebx,dword ptr [ebp-34h]
  00401DD9: 8B 45 F4           mov         eax,dword ptr [ebp-0Ch]
  00401DDC: FF 4D F4           dec         dword ptr [ebp-0Ch]
  00401DDF: 88 18              mov         byte ptr [eax],bl
  00401DE1: EB AF              jmp         00401D92
  00401DE3: 8D 45 B3           lea         eax,[ebp-4Dh]
  00401DE6: 2B 45 F4           sub         eax,dword ptr [ebp-0Ch]
  00401DE9: FF 45 F4           inc         dword ptr [ebp-0Ch]
  00401DEC: F6 45 FD 02        test        byte ptr [ebp-3],2
  00401DF0: 89 45 F0           mov         dword ptr [ebp-10h],eax
  00401DF3: 74 19              je          00401E0E
  00401DF5: 8B 4D F4           mov         ecx,dword ptr [ebp-0Ch]
  00401DF8: 80 39 30           cmp         byte ptr [ecx],30h
  00401DFB: 75 04              jne         00401E01
  00401DFD: 85 C0              test        eax,eax
  00401DFF: 75 0D              jne         00401E0E
  00401E01: FF 4D F4           dec         dword ptr [ebp-0Ch]
  00401E04: 40                 inc         eax
  00401E05: 8B 4D F4           mov         ecx,dword ptr [ebp-0Ch]
  00401E08: C6 01 30           mov         byte ptr [ecx],30h
  00401E0B: 89 45 F0           mov         dword ptr [ebp-10h],eax
  00401E0E: 83 7D C8 00        cmp         dword ptr [ebp-38h],0
  00401E12: 0F 85 F4 00 00 00  jne         00401F0C
  00401E18: 8B 5D FC           mov         ebx,dword ptr [ebp-4]
  00401E1B: F6 C3 40           test        bl,40h
  00401E1E: 74 26              je          00401E46
  00401E20: F6 C7 01           test        bh,1
  00401E23: 74 06              je          00401E2B
  00401E25: C6 45 EA 2D        mov         byte ptr [ebp-16h],2Dh
  00401E29: EB 14              jmp         00401E3F
  00401E2B: F6 C3 01           test        bl,1
  00401E2E: 74 06              je          00401E36
  00401E30: C6 45 EA 2B        mov         byte ptr [ebp-16h],2Bh
  00401E34: EB 09              jmp         00401E3F
  00401E36: F6 C3 02           test        bl,2
  00401E39: 74 0B              je          00401E46
  00401E3B: C6 45 EA 20        mov         byte ptr [ebp-16h],20h
  00401E3F: C7 45 DC 01 00 00  mov         dword ptr [ebp-24h],1
            00
  00401E46: 8B 75 D8           mov         esi,dword ptr [ebp-28h]
  00401E49: 2B 75 DC           sub         esi,dword ptr [ebp-24h]
  00401E4C: 2B 75 F0           sub         esi,dword ptr [ebp-10h]
  00401E4F: F6 C3 0C           test        bl,0Ch
  00401E52: 75 12              jne         00401E66
  00401E54: 8D 45 EC           lea         eax,[ebp-14h]
  00401E57: 50                 push        eax
  00401E58: FF 75 08           push        dword ptr [ebp+8]
  00401E5B: 56                 push        esi
  00401E5C: 6A 20              push        20h
  00401E5E: E8 2A 01 00 00     call        00401F8D
  00401E63: 83 C4 10           add         esp,10h
  00401E66: 8D 45 EC           lea         eax,[ebp-14h]
  00401E69: 50                 push        eax
  00401E6A: 8D 45 EA           lea         eax,[ebp-16h]
  00401E6D: FF 75 08           push        dword ptr [ebp+8]
  00401E70: FF 75 DC           push        dword ptr [ebp-24h]
  00401E73: 50                 push        eax
  00401E74: E8 45 01 00 00     call        00401FBE
  00401E79: 83 C4 10           add         esp,10h
  00401E7C: F6 C3 08           test        bl,8
  00401E7F: 74 17              je          00401E98
  00401E81: F6 C3 04           test        bl,4
  00401E84: 75 12              jne         00401E98
  00401E86: 8D 45 EC           lea         eax,[ebp-14h]
  00401E89: 50                 push        eax
  00401E8A: FF 75 08           push        dword ptr [ebp+8]
  00401E8D: 56                 push        esi
  00401E8E: 6A 30              push        30h
  00401E90: E8 F8 00 00 00     call        00401F8D
  00401E95: 83 C4 10           add         esp,10h
  00401E98: 83 7D D4 00        cmp         dword ptr [ebp-2Ch],0
  00401E9C: 74 41              je          00401EDF
  00401E9E: 83 7D F0 00        cmp         dword ptr [ebp-10h],0
  00401EA2: 7E 3B              jle         00401EDF
  00401EA4: 8B 45 F0           mov         eax,dword ptr [ebp-10h]
  00401EA7: 8B 5D F4           mov         ebx,dword ptr [ebp-0Ch]
  00401EAA: 8D 78 FF           lea         edi,[eax-1]
  00401EAD: 66 8B 03           mov         ax,word ptr [ebx]
  00401EB0: 43                 inc         ebx
  00401EB1: 50                 push        eax
  00401EB2: 8D 45 BC           lea         eax,[ebp-44h]
  00401EB5: 50                 push        eax
  00401EB6: 43                 inc         ebx
  00401EB7: E8 B2 18 00 00     call        0040376E
  00401EBC: 59                 pop         ecx
  00401EBD: 85 C0              test        eax,eax
  00401EBF: 59                 pop         ecx
  00401EC0: 7E 32              jle         00401EF4
  00401EC2: 8D 4D EC           lea         ecx,[ebp-14h]
  00401EC5: 51                 push        ecx
  00401EC6: FF 75 08           push        dword ptr [ebp+8]
  00401EC9: 50                 push        eax
  00401ECA: 8D 45 BC           lea         eax,[ebp-44h]
  00401ECD: 50                 push        eax
  00401ECE: E8 EB 00 00 00     call        00401FBE
  00401ED3: 83 C4 10           add         esp,10h
  00401ED6: 8B C7              mov         eax,edi
  00401ED8: 4F                 dec         edi
  00401ED9: 85 C0              test        eax,eax
  00401EDB: 75 D0              jne         00401EAD
  00401EDD: EB 15              jmp         00401EF4
  00401EDF: 8D 45 EC           lea         eax,[ebp-14h]
  00401EE2: 50                 push        eax
  00401EE3: FF 75 08           push        dword ptr [ebp+8]
  00401EE6: FF 75 F0           push        dword ptr [ebp-10h]
  00401EE9: FF 75 F4           push        dword ptr [ebp-0Ch]
  00401EEC: E8 CD 00 00 00     call        00401FBE
  00401EF1: 83 C4 10           add         esp,10h
  00401EF4: F6 45 FC 04        test        byte ptr [ebp-4],4
  00401EF8: 74 12              je          00401F0C
  00401EFA: 8D 45 EC           lea         eax,[ebp-14h]
  00401EFD: 50                 push        eax
  00401EFE: FF 75 08           push        dword ptr [ebp+8]
  00401F01: 56                 push        esi
  00401F02: 6A 20              push        20h
  00401F04: E8 84 00 00 00     call        00401F8D
  00401F09: 83 C4 10           add         esp,10h
  00401F0C: 83 7D D0 00        cmp         dword ptr [ebp-30h],0
  00401F10: 74 0D              je          00401F1F
  00401F12: FF 75 D0           push        dword ptr [ebp-30h]
  00401F15: E8 56 0E 00 00     call        00402D70
  00401F1A: 83 65 D0 00        and         dword ptr [ebp-30h],0
  00401F1E: 59                 pop         ecx
  00401F1F: 8B 75 0C           mov         esi,dword ptr [ebp+0Ch]
  00401F22: 8A 1E              mov         bl,byte ptr [esi]
  00401F24: 46                 inc         esi
  00401F25: 84 DB              test        bl,bl
  00401F27: 89 75 0C           mov         dword ptr [ebp+0Ch],esi
  00401F2A: 0F 85 BE F8 FF FF  jne         004017EE
  00401F30: 8B 45 EC           mov         eax,dword ptr [ebp-14h]
  00401F33: 5F                 pop         edi
  00401F34: 5E                 pop         esi
  00401F35: 5B                 pop         ebx
  00401F36: C9                 leave
  00401F37: C3                 ret
  00401F38: 6D                 ins         dword ptr es:[edi],dx
  00401F39: 19 40 00           sbb         dword ptr [eax],eax
  00401F3C: 3D 18 40 00 5A     cmp         eax,5A004018h
  00401F41: 18 40 00           sbb         byte ptr [eax],al
  00401F44: A6                 cmps        byte ptr [esi],byte ptr es:[edi]
  00401F45: 18 40 00           sbb         byte ptr [eax],al
  00401F48: DD 18              fstp        qword ptr [eax]
  00401F4A: 40                 inc         eax
  00401F4B: 00 E6              add         dh,ah
  00401F4D: 18 40 00           sbb         byte ptr [eax],al
  00401F50: 1E                 push        ds
  00401F51: 19 40 00           sbb         dword ptr [eax],eax
  00401F54: B2 19              mov         dl,19h
  00401F56: 40                 inc         eax
  00401F57: 00 55 8B           add         byte ptr [ebp-75h],dl
  00401F5A: EC                 in          al,dx
  00401F5B: 8B 4D 0C           mov         ecx,dword ptr [ebp+0Ch]
  00401F5E: FF 49 04           dec         dword ptr [ecx+4]
  00401F61: 78 0E              js          00401F71
  00401F63: 8B 11              mov         edx,dword ptr [ecx]
  00401F65: 8A 45 08           mov         al,byte ptr [ebp+8]
  00401F68: 88 02              mov         byte ptr [edx],al
  00401F6A: FF 01              inc         dword ptr [ecx]
  00401F6C: 0F B6 C0           movzx       eax,al
  00401F6F: EB 0B              jmp         00401F7C
  00401F71: 51                 push        ecx
  00401F72: FF 75 08           push        dword ptr [ebp+8]
  00401F75: E8 4B 19 00 00     call        004038C5
  00401F7A: 59                 pop         ecx
  00401F7B: 59                 pop         ecx
  00401F7C: 83 F8 FF           cmp         eax,0FFFFFFFFh
  00401F7F: 8B 45 10           mov         eax,dword ptr [ebp+10h]
  00401F82: 75 05              jne         00401F89
  00401F84: 83 08 FF           or          dword ptr [eax],0FFFFFFFFh
  00401F87: 5D                 pop         ebp
  00401F88: C3                 ret
  00401F89: FF 00              inc         dword ptr [eax]
  00401F8B: 5D                 pop         ebp
  00401F8C: C3                 ret
  00401F8D: 56                 push        esi
  00401F8E: 57                 push        edi
  00401F8F: 8B 7C 24 10        mov         edi,dword ptr [esp+10h]
  00401F93: 8B C7              mov         eax,edi
  00401F95: 4F                 dec         edi
  00401F96: 85 C0              test        eax,eax
  00401F98: 7E 21              jle         00401FBB
  00401F9A: 8B 74 24 18        mov         esi,dword ptr [esp+18h]
  00401F9E: 56                 push        esi
  00401F9F: FF 74 24 18        push        dword ptr [esp+18h]
  00401FA3: FF 74 24 14        push        dword ptr [esp+14h]
  00401FA7: E8 AC FF FF FF     call        00401F58
  00401FAC: 83 C4 0C           add         esp,0Ch
  00401FAF: 83 3E FF           cmp         dword ptr [esi],0FFFFFFFFh
  00401FB2: 74 07              je          00401FBB
  00401FB4: 8B C7              mov         eax,edi
  00401FB6: 4F                 dec         edi
  00401FB7: 85 C0              test        eax,eax
  00401FB9: 7F E3              jg          00401F9E
  00401FBB: 5F                 pop         edi
  00401FBC: 5E                 pop         esi
  00401FBD: C3                 ret
  00401FBE: 53                 push        ebx
  00401FBF: 8B 5C 24 0C        mov         ebx,dword ptr [esp+0Ch]
  00401FC3: 8B C3              mov         eax,ebx
  00401FC5: 4B                 dec         ebx
  00401FC6: 56                 push        esi
  00401FC7: 57                 push        edi
  00401FC8: 85 C0              test        eax,eax
  00401FCA: 7E 26              jle         00401FF2
  00401FCC: 8B 7C 24 1C        mov         edi,dword ptr [esp+1Ch]
  00401FD0: 8B 74 24 10        mov         esi,dword ptr [esp+10h]
  00401FD4: 0F BE 06           movsx       eax,byte ptr [esi]
  00401FD7: 57                 push        edi
  00401FD8: 46                 inc         esi
  00401FD9: FF 74 24 1C        push        dword ptr [esp+1Ch]
  00401FDD: 50                 push        eax
  00401FDE: E8 75 FF FF FF     call        00401F58
  00401FE3: 83 C4 0C           add         esp,0Ch
  00401FE6: 83 3F FF           cmp         dword ptr [edi],0FFFFFFFFh
  00401FE9: 74 07              je          00401FF2
  00401FEB: 8B C3              mov         eax,ebx
  00401FED: 4B                 dec         ebx
  00401FEE: 85 C0              test        eax,eax
  00401FF0: 7F E2              jg          00401FD4
  00401FF2: 5F                 pop         edi
  00401FF3: 5E                 pop         esi
  00401FF4: 5B                 pop         ebx
  00401FF5: C3                 ret
  00401FF6: 8B 44 24 04        mov         eax,dword ptr [esp+4]
  00401FFA: 83 00 04           add         dword ptr [eax],4
  00401FFD: 8B 00              mov         eax,dword ptr [eax]
  00401FFF: 8B 40 FC           mov         eax,dword ptr [eax-4]
  00402002: C3                 ret
  00402003: 8B 44 24 04        mov         eax,dword ptr [esp+4]
  00402007: 83 00 08           add         dword ptr [eax],8
  0040200A: 8B 08              mov         ecx,dword ptr [eax]
  0040200C: 8B 41 F8           mov         eax,dword ptr [ecx-8]
  0040200F: 8B 51 FC           mov         edx,dword ptr [ecx-4]
  00402012: C3                 ret
  00402013: 8B 44 24 04        mov         eax,dword ptr [esp+4]
  00402017: 83 00 04           add         dword ptr [eax],4
  0040201A: 8B 00              mov         eax,dword ptr [eax]
  0040201C: 66 8B 40 FC        mov         ax,word ptr [eax-4]
  00402020: C3                 ret
  00402021: A1 40 BE 40 00     mov         eax,dword ptr ds:[0040BE40h]
  00402026: 56                 push        esi
  00402027: 6A 14              push        14h
  00402029: 85 C0              test        eax,eax
  0040202B: 5E                 pop         esi
  0040202C: 75 07              jne         00402035
  0040202E: B8 00 02 00 00     mov         eax,200h
  00402033: EB 06              jmp         0040203B
  00402035: 3B C6              cmp         eax,esi
  00402037: 7D 07              jge         00402040
  00402039: 8B C6              mov         eax,esi
  0040203B: A3 40 BE 40 00     mov         dword ptr ds:[0040BE40h],eax
  00402040: 6A 04              push        4
  00402042: 50                 push        eax
  00402043: E8 92 19 00 00     call        004039DA
  00402048: 59                 pop         ecx
  00402049: A3 24 AE 40 00     mov         dword ptr ds:[0040AE24h],eax
  0040204E: 85 C0              test        eax,eax
  00402050: 59                 pop         ecx
  00402051: 75 21              jne         00402074
  00402053: 6A 04              push        4
  00402055: 56                 push        esi
  00402056: 89 35 40 BE 40 00  mov         dword ptr ds:[0040BE40h],esi
  0040205C: E8 79 19 00 00     call        004039DA
  00402061: 59                 pop         ecx
  00402062: A3 24 AE 40 00     mov         dword ptr ds:[0040AE24h],eax
  00402067: 85 C0              test        eax,eax
  00402069: 59                 pop         ecx
  0040206A: 75 08              jne         00402074
  0040206C: 6A 1A              push        1Ah
  0040206E: E8 74 F1 FF FF     call        004011E7
  00402073: 59                 pop         ecx
  00402074: 33 C9              xor         ecx,ecx
  00402076: B8 60 80 40 00     mov         eax,408060h
  0040207B: 8B 15 24 AE 40 00  mov         edx,dword ptr ds:[0040AE24h]
  00402081: 89 04 11           mov         dword ptr [ecx+edx],eax
  00402084: 83 C0 20           add         eax,20h
  00402087: 83 C1 04           add         ecx,4
  0040208A: 3D E0 82 40 00     cmp         eax,4082E0h
  0040208F: 7C EA              jl          0040207B
  00402091: 33 D2              xor         edx,edx
  00402093: B9 70 80 40 00     mov         ecx,408070h
  00402098: 8B C2              mov         eax,edx
  0040209A: 8B F2              mov         esi,edx
  0040209C: C1 F8 05           sar         eax,5
  0040209F: 83 E6 1F           and         esi,1Fh
  004020A2: 8B 04 85 20 AD 40  mov         eax,dword ptr [eax*4+0040AD20h]
            00
  004020A9: 8B 04 F0           mov         eax,dword ptr [eax+esi*8]
  004020AC: 83 F8 FF           cmp         eax,0FFFFFFFFh
  004020AF: 74 04              je          004020B5
  004020B1: 85 C0              test        eax,eax
  004020B3: 75 03              jne         004020B8
  004020B5: 83 09 FF           or          dword ptr [ecx],0FFFFFFFFh
  004020B8: 83 C1 20           add         ecx,20h
  004020BB: 42                 inc         edx
  004020BC: 81 F9 D0 80 40 00  cmp         ecx,4080D0h
  004020C2: 7C D4              jl          00402098
  004020C4: 5E                 pop         esi
  004020C5: C3                 ret
  004020C6: E8 2D 16 00 00     call        004036F8
  004020CB: 80 3D 4C A9 40 00  cmp         byte ptr ds:[0040A94Ch],0
            00
  004020D2: 74 05              je          004020D9
  004020D4: E9 B2 19 00 00     jmp         00403A8B
  004020D9: C3                 ret
  004020DA: 55                 push        ebp
  004020DB: 8B EC              mov         ebp,esp
  004020DD: 53                 push        ebx
  004020DE: FF 75 08           push        dword ptr [ebp+8]
  004020E1: E8 35 01 00 00     call        0040221B
  004020E6: 85 C0              test        eax,eax
  004020E8: 59                 pop         ecx
  004020E9: 0F 84 20 01 00 00  je          0040220F
  004020EF: 8B 58 08           mov         ebx,dword ptr [eax+8]
  004020F2: 85 DB              test        ebx,ebx
  004020F4: 0F 84 15 01 00 00  je          0040220F
  004020FA: 83 FB 05           cmp         ebx,5
  004020FD: 75 0C              jne         0040210B
  004020FF: 83 60 08 00        and         dword ptr [eax+8],0
  00402103: 6A 01              push        1
  00402105: 58                 pop         eax
  00402106: E9 0D 01 00 00     jmp         00402218
  0040210B: 83 FB 01           cmp         ebx,1
  0040210E: 0F 84 F6 00 00 00  je          0040220A
  00402114: 8B 0D 64 A9 40 00  mov         ecx,dword ptr ds:[0040A964h]
  0040211A: 89 4D 08           mov         dword ptr [ebp+8],ecx
  0040211D: 8B 4D 0C           mov         ecx,dword ptr [ebp+0Ch]
  00402120: 89 0D 64 A9 40 00  mov         dword ptr ds:[0040A964h],ecx
  00402126: 8B 48 04           mov         ecx,dword ptr [eax+4]
  00402129: 83 F9 08           cmp         ecx,8
  0040212C: 0F 85 C8 00 00 00  jne         004021FA
  00402132: 8B 0D 58 83 40 00  mov         ecx,dword ptr ds:[00408358h]
  00402138: 8B 15 5C 83 40 00  mov         edx,dword ptr ds:[0040835Ch]
  0040213E: 03 D1              add         edx,ecx
  00402140: 56                 push        esi
  00402141: 3B CA              cmp         ecx,edx
  00402143: 7D 15              jge         0040215A
  00402145: 8D 34 49           lea         esi,[ecx+ecx*2]
  00402148: 2B D1              sub         edx,ecx
  0040214A: 8D 34 B5 E8 82 40  lea         esi,[esi*4+004082E8h]
            00
  00402151: 83 26 00           and         dword ptr [esi],0
  00402154: 83 C6 0C           add         esi,0Ch
  00402157: 4A                 dec         edx
  00402158: 75 F7              jne         00402151
  0040215A: 8B 00              mov         eax,dword ptr [eax]
  0040215C: 8B 35 64 83 40 00  mov         esi,dword ptr ds:[00408364h]
  00402162: 3D 8E 00 00 C0     cmp         eax,0C000008Eh
  00402167: 75 0C              jne         00402175
  00402169: C7 05 64 83 40 00  mov         dword ptr ds:[00408364h],83h
            83 00 00 00
  00402173: EB 70              jmp         004021E5
  00402175: 3D 90 00 00 C0     cmp         eax,0C0000090h
  0040217A: 75 0C              jne         00402188
  0040217C: C7 05 64 83 40 00  mov         dword ptr ds:[00408364h],81h
            81 00 00 00
  00402186: EB 5D              jmp         004021E5
  00402188: 3D 91 00 00 C0     cmp         eax,0C0000091h
  0040218D: 75 0C              jne         0040219B
  0040218F: C7 05 64 83 40 00  mov         dword ptr ds:[00408364h],84h
            84 00 00 00
  00402199: EB 4A              jmp         004021E5
  0040219B: 3D 93 00 00 C0     cmp         eax,0C0000093h
  004021A0: 75 0C              jne         004021AE
  004021A2: C7 05 64 83 40 00  mov         dword ptr ds:[00408364h],85h
            85 00 00 00
  004021AC: EB 37              jmp         004021E5
  004021AE: 3D 8D 00 00 C0     cmp         eax,0C000008Dh
  004021B3: 75 0C              jne         004021C1
  004021B5: C7 05 64 83 40 00  mov         dword ptr ds:[00408364h],82h
            82 00 00 00
  004021BF: EB 24              jmp         004021E5
  004021C1: 3D 8F 00 00 C0     cmp         eax,0C000008Fh
  004021C6: 75 0C              jne         004021D4
  004021C8: C7 05 64 83 40 00  mov         dword ptr ds:[00408364h],86h
            86 00 00 00
  004021D2: EB 11              jmp         004021E5
  004021D4: 3D 92 00 00 C0     cmp         eax,0C0000092h
  004021D9: 75 0A              jne         004021E5
  004021DB: C7 05 64 83 40 00  mov         dword ptr ds:[00408364h],8Ah
            8A 00 00 00
  004021E5: FF 35 64 83 40 00  push        dword ptr ds:[00408364h]
  004021EB: 6A 08              push        8
  004021ED: FF D3              call        ebx
  004021EF: 59                 pop         ecx
  004021F0: 89 35 64 83 40 00  mov         dword ptr ds:[00408364h],esi
  004021F6: 59                 pop         ecx
  004021F7: 5E                 pop         esi
  004021F8: EB 08              jmp         00402202
  004021FA: 83 60 08 00        and         dword ptr [eax+8],0
  004021FE: 51                 push        ecx
  004021FF: FF D3              call        ebx
  00402201: 59                 pop         ecx
  00402202: 8B 45 08           mov         eax,dword ptr [ebp+8]
  00402205: A3 64 A9 40 00     mov         dword ptr ds:[0040A964h],eax
  0040220A: 83 C8 FF           or          eax,0FFFFFFFFh
  0040220D: EB 09              jmp         00402218
  0040220F: FF 75 0C           push        dword ptr [ebp+0Ch]
  00402212: FF 15 1C 70 40 00  call        dword ptr ds:[0040701Ch]
  00402218: 5B                 pop         ebx
  00402219: 5D                 pop         ebp
  0040221A: C3                 ret
  0040221B: 8B 54 24 04        mov         edx,dword ptr [esp+4]
  0040221F: 8B 0D 60 83 40 00  mov         ecx,dword ptr ds:[00408360h]
  00402225: 39 15 E0 82 40 00  cmp         dword ptr ds:[004082E0h],edx
  0040222B: 56                 push        esi
  0040222C: B8 E0 82 40 00     mov         eax,4082E0h
  00402231: 74 15              je          00402248
  00402233: 8D 34 49           lea         esi,[ecx+ecx*2]
  00402236: 8D 34 B5 E0 82 40  lea         esi,[esi*4+004082E0h]
            00
  0040223D: 83 C0 0C           add         eax,0Ch
  00402240: 3B C6              cmp         eax,esi
  00402242: 73 04              jae         00402248
  00402244: 39 10              cmp         dword ptr [eax],edx
  00402246: 75 F5              jne         0040223D
  00402248: 8D 0C 49           lea         ecx,[ecx+ecx*2]
  0040224B: 5E                 pop         esi
  0040224C: 8D 0C 8D E0 82 40  lea         ecx,[ecx*4+004082E0h]
            00
  00402253: 3B C1              cmp         eax,ecx
  00402255: 73 04              jae         0040225B
  00402257: 39 10              cmp         dword ptr [eax],edx
  00402259: 74 02              je          0040225D
  0040225B: 33 C0              xor         eax,eax
  0040225D: C3                 ret
  0040225E: 53                 push        ebx
  0040225F: 33 DB              xor         ebx,ebx
  00402261: 39 1D 48 BE 40 00  cmp         dword ptr ds:[0040BE48h],ebx
  00402267: 56                 push        esi
  00402268: 57                 push        edi
  00402269: 75 05              jne         00402270
  0040226B: E8 37 1C 00 00     call        00403EA7
  00402270: 8B 35 00 A9 40 00  mov         esi,dword ptr ds:[0040A900h]
  00402276: 33 FF              xor         edi,edi
  00402278: 8A 06              mov         al,byte ptr [esi]
  0040227A: 3A C3              cmp         al,bl
  0040227C: 74 12              je          00402290
  0040227E: 3C 3D              cmp         al,3Dh
  00402280: 74 01              je          00402283
  00402282: 47                 inc         edi
  00402283: 56                 push        esi
  00402284: E8 A7 0C 00 00     call        00402F30
  00402289: 59                 pop         ecx
  0040228A: 8D 74 06 01        lea         esi,[esi+eax+1]
  0040228E: EB E8              jmp         00402278
  00402290: 8D 04 BD 04 00 00  lea         eax,[edi*4+00000004h]
            00
  00402297: 50                 push        eax
  00402298: E8 82 0D 00 00     call        0040301F
  0040229D: 8B F0              mov         esi,eax
  0040229F: 59                 pop         ecx
  004022A0: 3B F3              cmp         esi,ebx
  004022A2: 89 35 34 A9 40 00  mov         dword ptr ds:[0040A934h],esi
  004022A8: 75 08              jne         004022B2
  004022AA: 6A 09              push        9
  004022AC: E8 36 EF FF FF     call        004011E7
  004022B1: 59                 pop         ecx
  004022B2: 8B 3D 00 A9 40 00  mov         edi,dword ptr ds:[0040A900h]
  004022B8: 38 1F              cmp         byte ptr [edi],bl
  004022BA: 74 39              je          004022F5
  004022BC: 55                 push        ebp
  004022BD: 57                 push        edi
  004022BE: E8 6D 0C 00 00     call        00402F30
  004022C3: 8B E8              mov         ebp,eax
  004022C5: 59                 pop         ecx
  004022C6: 45                 inc         ebp
  004022C7: 80 3F 3D           cmp         byte ptr [edi],3Dh
  004022CA: 74 22              je          004022EE
  004022CC: 55                 push        ebp
  004022CD: E8 4D 0D 00 00     call        0040301F
  004022D2: 3B C3              cmp         eax,ebx
  004022D4: 59                 pop         ecx
  004022D5: 89 06              mov         dword ptr [esi],eax
  004022D7: 75 08              jne         004022E1
  004022D9: 6A 09              push        9
  004022DB: E8 07 EF FF FF     call        004011E7
  004022E0: 59                 pop         ecx
  004022E1: 57                 push        edi
  004022E2: FF 36              push        dword ptr [esi]
  004022E4: E8 F7 0A 00 00     call        00402DE0
  004022E9: 59                 pop         ecx
  004022EA: 83 C6 04           add         esi,4
  004022ED: 59                 pop         ecx
  004022EE: 03 FD              add         edi,ebp
  004022F0: 38 1F              cmp         byte ptr [edi],bl
  004022F2: 75 C9              jne         004022BD
  004022F4: 5D                 pop         ebp
  004022F5: FF 35 00 A9 40 00  push        dword ptr ds:[0040A900h]
  004022FB: E8 70 0A 00 00     call        00402D70
  00402300: 59                 pop         ecx
  00402301: 89 1D 00 A9 40 00  mov         dword ptr ds:[0040A900h],ebx
  00402307: 89 1E              mov         dword ptr [esi],ebx
  00402309: 5F                 pop         edi
  0040230A: 5E                 pop         esi
  0040230B: C7 05 44 BE 40 00  mov         dword ptr ds:[0040BE44h],1
            01 00 00 00
  00402315: 5B                 pop         ebx
  00402316: C3                 ret
  00402317: 55                 push        ebp
  00402318: 8B EC              mov         ebp,esp
  0040231A: 51                 push        ecx
  0040231B: 51                 push        ecx
  0040231C: 53                 push        ebx
  0040231D: 33 DB              xor         ebx,ebx
  0040231F: 39 1D 48 BE 40 00  cmp         dword ptr ds:[0040BE48h],ebx
  00402325: 56                 push        esi
  00402326: 57                 push        edi
  00402327: 75 05              jne         0040232E
  00402329: E8 79 1B 00 00     call        00403EA7
  0040232E: BE 68 A9 40 00     mov         esi,40A968h
  00402333: 68 04 01 00 00     push        104h
  00402338: 56                 push        esi
  00402339: 53                 push        ebx
  0040233A: FF 15 20 70 40 00  call        dword ptr ds:[00407020h]
  00402340: A1 58 BE 40 00     mov         eax,dword ptr ds:[0040BE58h]
  00402345: 89 35 44 A9 40 00  mov         dword ptr ds:[0040A944h],esi
  0040234B: 8B FE              mov         edi,esi
  0040234D: 38 18              cmp         byte ptr [eax],bl
  0040234F: 74 02              je          00402353
  00402351: 8B F8              mov         edi,eax
  00402353: 8D 45 F8           lea         eax,[ebp-8]
  00402356: 50                 push        eax
  00402357: 8D 45 FC           lea         eax,[ebp-4]
  0040235A: 50                 push        eax
  0040235B: 53                 push        ebx
  0040235C: 53                 push        ebx
  0040235D: 57                 push        edi
  0040235E: E8 4D 00 00 00     call        004023B0
  00402363: 8B 45 F8           mov         eax,dword ptr [ebp-8]
  00402366: 8B 4D FC           mov         ecx,dword ptr [ebp-4]
  00402369: 8D 04 88           lea         eax,[eax+ecx*4]
  0040236C: 50                 push        eax
  0040236D: E8 AD 0C 00 00     call        0040301F
  00402372: 8B F0              mov         esi,eax
  00402374: 83 C4 18           add         esp,18h
  00402377: 3B F3              cmp         esi,ebx
  00402379: 75 08              jne         00402383
  0040237B: 6A 08              push        8
  0040237D: E8 65 EE FF FF     call        004011E7
  00402382: 59                 pop         ecx
  00402383: 8D 45 F8           lea         eax,[ebp-8]
  00402386: 50                 push        eax
  00402387: 8D 45 FC           lea         eax,[ebp-4]
  0040238A: 50                 push        eax
  0040238B: 8B 45 FC           mov         eax,dword ptr [ebp-4]
  0040238E: 8D 04 86           lea         eax,[esi+eax*4]
  00402391: 50                 push        eax
  00402392: 56                 push        esi
  00402393: 57                 push        edi
  00402394: E8 17 00 00 00     call        004023B0
  00402399: 8B 45 FC           mov         eax,dword ptr [ebp-4]
  0040239C: 83 C4 14           add         esp,14h
  0040239F: 48                 dec         eax
  004023A0: 89 35 2C A9 40 00  mov         dword ptr ds:[0040A92Ch],esi
  004023A6: 5F                 pop         edi
  004023A7: 5E                 pop         esi
  004023A8: A3 28 A9 40 00     mov         dword ptr ds:[0040A928h],eax
  004023AD: 5B                 pop         ebx
  004023AE: C9                 leave
  004023AF: C3                 ret
  004023B0: 55                 push        ebp
  004023B1: 8B EC              mov         ebp,esp
  004023B3: 8B 4D 18           mov         ecx,dword ptr [ebp+18h]
  004023B6: 8B 45 14           mov         eax,dword ptr [ebp+14h]
  004023B9: 53                 push        ebx
  004023BA: 56                 push        esi
  004023BB: 83 21 00           and         dword ptr [ecx],0
  004023BE: 8B 75 10           mov         esi,dword ptr [ebp+10h]
  004023C1: 57                 push        edi
  004023C2: 8B 7D 0C           mov         edi,dword ptr [ebp+0Ch]
  004023C5: C7 00 01 00 00 00  mov         dword ptr [eax],1
  004023CB: 8B 45 08           mov         eax,dword ptr [ebp+8]
  004023CE: 85 FF              test        edi,edi
  004023D0: 74 08              je          004023DA
  004023D2: 89 37              mov         dword ptr [edi],esi
  004023D4: 83 C7 04           add         edi,4
  004023D7: 89 7D 0C           mov         dword ptr [ebp+0Ch],edi
  004023DA: 80 38 22           cmp         byte ptr [eax],22h
  004023DD: 75 44              jne         00402423
  004023DF: 8A 50 01           mov         dl,byte ptr [eax+1]
  004023E2: 40                 inc         eax
  004023E3: 80 FA 22           cmp         dl,22h
  004023E6: 74 29              je          00402411
  004023E8: 84 D2              test        dl,dl
  004023EA: 74 25              je          00402411
  004023EC: 0F B6 D2           movzx       edx,dl
  004023EF: F6 82 01 AC 40 00  test        byte ptr [edx+0040AC01h],4
            04
  004023F6: 74 0C              je          00402404
  004023F8: FF 01              inc         dword ptr [ecx]
  004023FA: 85 F6              test        esi,esi
  004023FC: 74 06              je          00402404
  004023FE: 8A 10              mov         dl,byte ptr [eax]
  00402400: 88 16              mov         byte ptr [esi],dl
  00402402: 46                 inc         esi
  00402403: 40                 inc         eax
  00402404: FF 01              inc         dword ptr [ecx]
  00402406: 85 F6              test        esi,esi
  00402408: 74 D5              je          004023DF
  0040240A: 8A 10              mov         dl,byte ptr [eax]
  0040240C: 88 16              mov         byte ptr [esi],dl
  0040240E: 46                 inc         esi
  0040240F: EB CE              jmp         004023DF
  00402411: FF 01              inc         dword ptr [ecx]
  00402413: 85 F6              test        esi,esi
  00402415: 74 04              je          0040241B
  00402417: 80 26 00           and         byte ptr [esi],0
  0040241A: 46                 inc         esi
  0040241B: 80 38 22           cmp         byte ptr [eax],22h
  0040241E: 75 46              jne         00402466
  00402420: 40                 inc         eax
  00402421: EB 43              jmp         00402466
  00402423: FF 01              inc         dword ptr [ecx]
  00402425: 85 F6              test        esi,esi
  00402427: 74 05              je          0040242E
  00402429: 8A 10              mov         dl,byte ptr [eax]
  0040242B: 88 16              mov         byte ptr [esi],dl
  0040242D: 46                 inc         esi
  0040242E: 8A 10              mov         dl,byte ptr [eax]
  00402430: 40                 inc         eax
  00402431: 0F B6 DA           movzx       ebx,dl
  00402434: F6 83 01 AC 40 00  test        byte ptr [ebx+0040AC01h],4
            04
  0040243B: 74 0C              je          00402449
  0040243D: FF 01              inc         dword ptr [ecx]
  0040243F: 85 F6              test        esi,esi
  00402441: 74 05              je          00402448
  00402443: 8A 18              mov         bl,byte ptr [eax]
  00402445: 88 1E              mov         byte ptr [esi],bl
  00402447: 46                 inc         esi
  00402448: 40                 inc         eax
  00402449: 80 FA 20           cmp         dl,20h
  0040244C: 74 09              je          00402457
  0040244E: 84 D2              test        dl,dl
  00402450: 74 09              je          0040245B
  00402452: 80 FA 09           cmp         dl,9
  00402455: 75 CC              jne         00402423
  00402457: 84 D2              test        dl,dl
  00402459: 75 03              jne         0040245E
  0040245B: 48                 dec         eax
  0040245C: EB 08              jmp         00402466
  0040245E: 85 F6              test        esi,esi
  00402460: 74 04              je          00402466
  00402462: 80 66 FF 00        and         byte ptr [esi-1],0
  00402466: 83 65 18 00        and         dword ptr [ebp+18h],0
  0040246A: 80 38 00           cmp         byte ptr [eax],0
  0040246D: 0F 84 E0 00 00 00  je          00402553
  00402473: 8A 10              mov         dl,byte ptr [eax]
  00402475: 80 FA 20           cmp         dl,20h
  00402478: 74 05              je          0040247F
  0040247A: 80 FA 09           cmp         dl,9
  0040247D: 75 03              jne         00402482
  0040247F: 40                 inc         eax
  00402480: EB F1              jmp         00402473
  00402482: 80 38 00           cmp         byte ptr [eax],0
  00402485: 0F 84 C8 00 00 00  je          00402553
  0040248B: 85 FF              test        edi,edi
  0040248D: 74 08              je          00402497
  0040248F: 89 37              mov         dword ptr [edi],esi
  00402491: 83 C7 04           add         edi,4
  00402494: 89 7D 0C           mov         dword ptr [ebp+0Ch],edi
  00402497: 8B 55 14           mov         edx,dword ptr [ebp+14h]
  0040249A: FF 02              inc         dword ptr [edx]
  0040249C: C7 45 08 01 00 00  mov         dword ptr [ebp+8],1
            00
  004024A3: 33 DB              xor         ebx,ebx
  004024A5: 80 38 5C           cmp         byte ptr [eax],5Ch
  004024A8: 75 04              jne         004024AE
  004024AA: 40                 inc         eax
  004024AB: 43                 inc         ebx
  004024AC: EB F7              jmp         004024A5
  004024AE: 80 38 22           cmp         byte ptr [eax],22h
  004024B1: 75 2C              jne         004024DF
  004024B3: F6 C3 01           test        bl,1
  004024B6: 75 25              jne         004024DD
  004024B8: 33 FF              xor         edi,edi
  004024BA: 39 7D 18           cmp         dword ptr [ebp+18h],edi
  004024BD: 74 0D              je          004024CC
  004024BF: 80 78 01 22        cmp         byte ptr [eax+1],22h
  004024C3: 8D 50 01           lea         edx,[eax+1]
  004024C6: 75 04              jne         004024CC
  004024C8: 8B C2              mov         eax,edx
  004024CA: EB 03              jmp         004024CF
  004024CC: 89 7D 08           mov         dword ptr [ebp+8],edi
  004024CF: 8B 7D 0C           mov         edi,dword ptr [ebp+0Ch]
  004024D2: 33 D2              xor         edx,edx
  004024D4: 39 55 18           cmp         dword ptr [ebp+18h],edx
  004024D7: 0F 94 C2           sete        dl
  004024DA: 89 55 18           mov         dword ptr [ebp+18h],edx
  004024DD: D1 EB              shr         ebx,1
  004024DF: 8B D3              mov         edx,ebx
  004024E1: 4B                 dec         ebx
  004024E2: 85 D2              test        edx,edx
  004024E4: 74 0E              je          004024F4
  004024E6: 43                 inc         ebx
  004024E7: 85 F6              test        esi,esi
  004024E9: 74 04              je          004024EF
  004024EB: C6 06 5C           mov         byte ptr [esi],5Ch
  004024EE: 46                 inc         esi
  004024EF: FF 01              inc         dword ptr [ecx]
  004024F1: 4B                 dec         ebx
  004024F2: 75 F3              jne         004024E7
  004024F4: 8A 10              mov         dl,byte ptr [eax]
  004024F6: 84 D2              test        dl,dl
  004024F8: 74 4A              je          00402544
  004024FA: 83 7D 18 00        cmp         dword ptr [ebp+18h],0
  004024FE: 75 0A              jne         0040250A
  00402500: 80 FA 20           cmp         dl,20h
  00402503: 74 3F              je          00402544
  00402505: 80 FA 09           cmp         dl,9
  00402508: 74 3A              je          00402544
  0040250A: 83 7D 08 00        cmp         dword ptr [ebp+8],0
  0040250E: 74 2E              je          0040253E
  00402510: 85 F6              test        esi,esi
  00402512: 74 19              je          0040252D
  00402514: 0F B6 DA           movzx       ebx,dl
  00402517: F6 83 01 AC 40 00  test        byte ptr [ebx+0040AC01h],4
            04
  0040251E: 74 06              je          00402526
  00402520: 88 16              mov         byte ptr [esi],dl
  00402522: 46                 inc         esi
  00402523: 40                 inc         eax
  00402524: FF 01              inc         dword ptr [ecx]
  00402526: 8A 10              mov         dl,byte ptr [eax]
  00402528: 88 16              mov         byte ptr [esi],dl
  0040252A: 46                 inc         esi
  0040252B: EB 0F              jmp         0040253C
  0040252D: 0F B6 D2           movzx       edx,dl
  00402530: F6 82 01 AC 40 00  test        byte ptr [edx+0040AC01h],4
            04
  00402537: 74 03              je          0040253C
  00402539: 40                 inc         eax
  0040253A: FF 01              inc         dword ptr [ecx]
  0040253C: FF 01              inc         dword ptr [ecx]
  0040253E: 40                 inc         eax
  0040253F: E9 58 FF FF FF     jmp         0040249C
  00402544: 85 F6              test        esi,esi
  00402546: 74 04              je          0040254C
  00402548: 80 26 00           and         byte ptr [esi],0
  0040254B: 46                 inc         esi
  0040254C: FF 01              inc         dword ptr [ecx]
  0040254E: E9 17 FF FF FF     jmp         0040246A
  00402553: 85 FF              test        edi,edi
  00402555: 74 03              je          0040255A
  00402557: 83 27 00           and         dword ptr [edi],0
  0040255A: 8B 45 14           mov         eax,dword ptr [ebp+14h]
  0040255D: 5F                 pop         edi
  0040255E: 5E                 pop         esi
  0040255F: 5B                 pop         ebx
  00402560: FF 00              inc         dword ptr [eax]
  00402562: 5D                 pop         ebp
  00402563: C3                 ret
  00402564: 51                 push        ecx
  00402565: 51                 push        ecx
  00402566: A1 6C AA 40 00     mov         eax,dword ptr ds:[0040AA6Ch]
  0040256B: 53                 push        ebx
  0040256C: 55                 push        ebp
  0040256D: 8B 2D 34 70 40 00  mov         ebp,dword ptr ds:[00407034h]
  00402573: 56                 push        esi
  00402574: 57                 push        edi
  00402575: 33 DB              xor         ebx,ebx
  00402577: 33 F6              xor         esi,esi
  00402579: 33 FF              xor         edi,edi
  0040257B: 3B C3              cmp         eax,ebx
  0040257D: 75 33              jne         004025B2
  0040257F: FF D5              call        ebp
  00402581: 8B F0              mov         esi,eax
  00402583: 3B F3              cmp         esi,ebx
  00402585: 74 0C              je          00402593
  00402587: C7 05 6C AA 40 00  mov         dword ptr ds:[0040AA6Ch],1
            01 00 00 00
  00402591: EB 28              jmp         004025BB
  00402593: FF 15 30 70 40 00  call        dword ptr ds:[00407030h]
  00402599: 8B F8              mov         edi,eax
  0040259B: 3B FB              cmp         edi,ebx
  0040259D: 0F 84 EA 00 00 00  je          0040268D
  004025A3: C7 05 6C AA 40 00  mov         dword ptr ds:[0040AA6Ch],2
            02 00 00 00
  004025AD: E9 8F 00 00 00     jmp         00402641
  004025B2: 83 F8 01           cmp         eax,1
  004025B5: 0F 85 81 00 00 00  jne         0040263C
  004025BB: 3B F3              cmp         esi,ebx
  004025BD: 75 0C              jne         004025CB
  004025BF: FF D5              call        ebp
  004025C1: 8B F0              mov         esi,eax
  004025C3: 3B F3              cmp         esi,ebx
  004025C5: 0F 84 C2 00 00 00  je          0040268D
  004025CB: 66 39 1E           cmp         word ptr [esi],bx
  004025CE: 8B C6              mov         eax,esi
  004025D0: 74 0E              je          004025E0
  004025D2: 40                 inc         eax
  004025D3: 40                 inc         eax
  004025D4: 66 39 18           cmp         word ptr [eax],bx
  004025D7: 75 F9              jne         004025D2
  004025D9: 40                 inc         eax
  004025DA: 40                 inc         eax
  004025DB: 66 39 18           cmp         word ptr [eax],bx
  004025DE: 75 F2              jne         004025D2
  004025E0: 2B C6              sub         eax,esi
  004025E2: 8B 3D 2C 70 40 00  mov         edi,dword ptr ds:[0040702Ch]
  004025E8: D1 F8              sar         eax,1
  004025EA: 53                 push        ebx
  004025EB: 53                 push        ebx
  004025EC: 40                 inc         eax
  004025ED: 53                 push        ebx
  004025EE: 53                 push        ebx
  004025EF: 50                 push        eax
  004025F0: 56                 push        esi
  004025F1: 53                 push        ebx
  004025F2: 53                 push        ebx
  004025F3: 89 44 24 34        mov         dword ptr [esp+34h],eax
  004025F7: FF D7              call        edi
  004025F9: 8B E8              mov         ebp,eax
  004025FB: 3B EB              cmp         ebp,ebx
  004025FD: 74 32              je          00402631
  004025FF: 55                 push        ebp
  00402600: E8 1A 0A 00 00     call        0040301F
  00402605: 3B C3              cmp         eax,ebx
  00402607: 59                 pop         ecx
  00402608: 89 44 24 10        mov         dword ptr [esp+10h],eax
  0040260C: 74 23              je          00402631
  0040260E: 53                 push        ebx
  0040260F: 53                 push        ebx
  00402610: 55                 push        ebp
  00402611: 50                 push        eax
  00402612: FF 74 24 24        push        dword ptr [esp+24h]
  00402616: 56                 push        esi
  00402617: 53                 push        ebx
  00402618: 53                 push        ebx
  00402619: FF D7              call        edi
  0040261B: 85 C0              test        eax,eax
  0040261D: 75 0E              jne         0040262D
  0040261F: FF 74 24 10        push        dword ptr [esp+10h]
  00402623: E8 48 07 00 00     call        00402D70
  00402628: 59                 pop         ecx
  00402629: 89 5C 24 10        mov         dword ptr [esp+10h],ebx
  0040262D: 8B 5C 24 10        mov         ebx,dword ptr [esp+10h]
  00402631: 56                 push        esi
  00402632: FF 15 28 70 40 00  call        dword ptr ds:[00407028h]
  00402638: 8B C3              mov         eax,ebx
  0040263A: EB 53              jmp         0040268F
  0040263C: 83 F8 02           cmp         eax,2
  0040263F: 75 4C              jne         0040268D
  00402641: 3B FB              cmp         edi,ebx
  00402643: 75 0C              jne         00402651
  00402645: FF 15 30 70 40 00  call        dword ptr ds:[00407030h]
  0040264B: 8B F8              mov         edi,eax
  0040264D: 3B FB              cmp         edi,ebx
  0040264F: 74 3C              je          0040268D
  00402651: 38 1F              cmp         byte ptr [edi],bl
  00402653: 8B C7              mov         eax,edi
  00402655: 74 0A              je          00402661
  00402657: 40                 inc         eax
  00402658: 38 18              cmp         byte ptr [eax],bl
  0040265A: 75 FB              jne         00402657
  0040265C: 40                 inc         eax
  0040265D: 38 18              cmp         byte ptr [eax],bl
  0040265F: 75 F6              jne         00402657
  00402661: 2B C7              sub         eax,edi
  00402663: 40                 inc         eax
  00402664: 8B E8              mov         ebp,eax
  00402666: 55                 push        ebp
  00402667: E8 B3 09 00 00     call        0040301F
  0040266C: 8B F0              mov         esi,eax
  0040266E: 59                 pop         ecx
  0040266F: 3B F3              cmp         esi,ebx
  00402671: 75 04              jne         00402677
  00402673: 33 F6              xor         esi,esi
  00402675: EB 0B              jmp         00402682
  00402677: 55                 push        ebp
  00402678: 57                 push        edi
  00402679: 56                 push        esi
  0040267A: E8 51 18 00 00     call        00403ED0
  0040267F: 83 C4 0C           add         esp,0Ch
  00402682: 57                 push        edi
  00402683: FF 15 24 70 40 00  call        dword ptr ds:[00407024h]
  00402689: 8B C6              mov         eax,esi
  0040268B: EB 02              jmp         0040268F
  0040268D: 33 C0              xor         eax,eax
  0040268F: 5F                 pop         edi
  00402690: 5E                 pop         esi
  00402691: 5D                 pop         ebp
  00402692: 5B                 pop         ebx
  00402693: 59                 pop         ecx
  00402694: 59                 pop         ecx
  00402695: C3                 ret
  00402696: 83 EC 44           sub         esp,44h
  00402699: 53                 push        ebx
  0040269A: 55                 push        ebp
  0040269B: 56                 push        esi
  0040269C: 57                 push        edi
  0040269D: 68 00 01 00 00     push        100h
  004026A2: E8 78 09 00 00     call        0040301F
  004026A7: 8B F0              mov         esi,eax
  004026A9: 59                 pop         ecx
  004026AA: 85 F6              test        esi,esi
  004026AC: 75 08              jne         004026B6
  004026AE: 6A 1B              push        1Bh
  004026B0: E8 32 EB FF FF     call        004011E7
  004026B5: 59                 pop         ecx
  004026B6: 89 35 20 AD 40 00  mov         dword ptr ds:[0040AD20h],esi
  004026BC: C7 05 20 AE 40 00  mov         dword ptr ds:[0040AE20h],20h
            20 00 00 00
  004026C6: 8D 86 00 01 00 00  lea         eax,[esi+00000100h]
  004026CC: 3B F0              cmp         esi,eax
  004026CE: 73 1A              jae         004026EA
  004026D0: 80 66 04 00        and         byte ptr [esi+4],0
  004026D4: 83 0E FF           or          dword ptr [esi],0FFFFFFFFh
  004026D7: C6 46 05 0A        mov         byte ptr [esi+5],0Ah
  004026DB: A1 20 AD 40 00     mov         eax,dword ptr ds:[0040AD20h]
  004026E0: 83 C6 08           add         esi,8
  004026E3: 05 00 01 00 00     add         eax,100h
  004026E8: EB E2              jmp         004026CC
  004026EA: 8D 44 24 10        lea         eax,[esp+10h]
  004026EE: 50                 push        eax
  004026EF: FF 15 44 70 40 00  call        dword ptr ds:[00407044h]
  004026F5: 66 83 7C 24 42 00  cmp         word ptr [esp+42h],0
  004026FB: 0F 84 C5 00 00 00  je          004027C6
  00402701: 8B 44 24 44        mov         eax,dword ptr [esp+44h]
  00402705: 85 C0              test        eax,eax
  00402707: 0F 84 B9 00 00 00  je          004027C6
  0040270D: 8B 30              mov         esi,dword ptr [eax]
  0040270F: 8D 68 04           lea         ebp,[eax+4]
  00402712: B8 00 08 00 00     mov         eax,800h
  00402717: 3B F0              cmp         esi,eax
  00402719: 8D 1C 2E           lea         ebx,[esi+ebp]
  0040271C: 7C 02              jl          00402720
  0040271E: 8B F0              mov         esi,eax
  00402720: 39 35 20 AE 40 00  cmp         dword ptr ds:[0040AE20h],esi
  00402726: 7D 52              jge         0040277A
  00402728: BF 24 AD 40 00     mov         edi,40AD24h
  0040272D: 68 00 01 00 00     push        100h
  00402732: E8 E8 08 00 00     call        0040301F
  00402737: 85 C0              test        eax,eax
  00402739: 59                 pop         ecx
  0040273A: 74 38              je          00402774
  0040273C: 83 05 20 AE 40 00  add         dword ptr ds:[0040AE20h],20h
            20
  00402743: 89 07              mov         dword ptr [edi],eax
  00402745: 8D 88 00 01 00 00  lea         ecx,[eax+00000100h]
  0040274B: 3B C1              cmp         eax,ecx
  0040274D: 73 18              jae         00402767
  0040274F: 80 60 04 00        and         byte ptr [eax+4],0
  00402753: 83 08 FF           or          dword ptr [eax],0FFFFFFFFh
  00402756: C6 40 05 0A        mov         byte ptr [eax+5],0Ah
  0040275A: 8B 0F              mov         ecx,dword ptr [edi]
  0040275C: 83 C0 08           add         eax,8
  0040275F: 81 C1 00 01 00 00  add         ecx,100h
  00402765: EB E4              jmp         0040274B
  00402767: 83 C7 04           add         edi,4
  0040276A: 39 35 20 AE 40 00  cmp         dword ptr ds:[0040AE20h],esi
  00402770: 7C BB              jl          0040272D
  00402772: EB 06              jmp         0040277A
  00402774: 8B 35 20 AE 40 00  mov         esi,dword ptr ds:[0040AE20h]
  0040277A: 33 FF              xor         edi,edi
  0040277C: 85 F6              test        esi,esi
  0040277E: 7E 46              jle         004027C6
  00402780: 8B 03              mov         eax,dword ptr [ebx]
  00402782: 83 F8 FF           cmp         eax,0FFFFFFFFh
  00402785: 74 36              je          004027BD
  00402787: 8A 4D 00           mov         cl,byte ptr [ebp]
  0040278A: F6 C1 01           test        cl,1
  0040278D: 74 2E              je          004027BD
  0040278F: F6 C1 08           test        cl,8
  00402792: 75 0B              jne         0040279F
  00402794: 50                 push        eax
  00402795: FF 15 40 70 40 00  call        dword ptr ds:[00407040h]
  0040279B: 85 C0              test        eax,eax
  0040279D: 74 1E              je          004027BD
  0040279F: 8B C7              mov         eax,edi
  004027A1: 8B CF              mov         ecx,edi
  004027A3: C1 F8 05           sar         eax,5
  004027A6: 83 E1 1F           and         ecx,1Fh
  004027A9: 8B 04 85 20 AD 40  mov         eax,dword ptr [eax*4+0040AD20h]
            00
  004027B0: 8D 04 C8           lea         eax,[eax+ecx*8]
  004027B3: 8B 0B              mov         ecx,dword ptr [ebx]
  004027B5: 89 08              mov         dword ptr [eax],ecx
  004027B7: 8A 4D 00           mov         cl,byte ptr [ebp]
  004027BA: 88 48 04           mov         byte ptr [eax+4],cl
  004027BD: 47                 inc         edi
  004027BE: 45                 inc         ebp
  004027BF: 83 C3 04           add         ebx,4
  004027C2: 3B FE              cmp         edi,esi
  004027C4: 7C BA              jl          00402780
  004027C6: 33 DB              xor         ebx,ebx
  004027C8: A1 20 AD 40 00     mov         eax,dword ptr ds:[0040AD20h]
  004027CD: 83 3C D8 FF        cmp         dword ptr [eax+ebx*8],0FFFFFFFFh
  004027D1: 8D 34 D8           lea         esi,[eax+ebx*8]
  004027D4: 75 4D              jne         00402823
  004027D6: 85 DB              test        ebx,ebx
  004027D8: C6 46 04 81        mov         byte ptr [esi+4],81h
  004027DC: 75 05              jne         004027E3
  004027DE: 6A F6              push        0FFFFFFF6h
  004027E0: 58                 pop         eax
  004027E1: EB 0A              jmp         004027ED
  004027E3: 8B C3              mov         eax,ebx
  004027E5: 48                 dec         eax
  004027E6: F7 D8              neg         eax
  004027E8: 1B C0              sbb         eax,eax
  004027EA: 83 C0 F5           add         eax,0FFFFFFF5h
  004027ED: 50                 push        eax
  004027EE: FF 15 3C 70 40 00  call        dword ptr ds:[0040703Ch]
  004027F4: 8B F8              mov         edi,eax
  004027F6: 83 FF FF           cmp         edi,0FFFFFFFFh
  004027F9: 74 17              je          00402812
  004027FB: 57                 push        edi
  004027FC: FF 15 40 70 40 00  call        dword ptr ds:[00407040h]
  00402802: 85 C0              test        eax,eax
  00402804: 74 0C              je          00402812
  00402806: 25 FF 00 00 00     and         eax,0FFh
  0040280B: 89 3E              mov         dword ptr [esi],edi
  0040280D: 83 F8 02           cmp         eax,2
  00402810: 75 06              jne         00402818
  00402812: 80 4E 04 40        or          byte ptr [esi+4],40h
  00402816: EB 0F              jmp         00402827
  00402818: 83 F8 03           cmp         eax,3
  0040281B: 75 0A              jne         00402827
  0040281D: 80 4E 04 08        or          byte ptr [esi+4],8
  00402821: EB 04              jmp         00402827
  00402823: 80 4E 04 80        or          byte ptr [esi+4],80h
  00402827: 43                 inc         ebx
  00402828: 83 FB 03           cmp         ebx,3
  0040282B: 7C 9B              jl          004027C8
  0040282D: FF 35 20 AE 40 00  push        dword ptr ds:[0040AE20h]
  00402833: FF 15 38 70 40 00  call        dword ptr ds:[00407038h]
  00402839: 5F                 pop         edi
  0040283A: 5E                 pop         esi
  0040283B: 5D                 pop         ebp
  0040283C: 5B                 pop         ebx
  0040283D: 83 C4 44           add         esp,44h
  00402840: C3                 ret
  00402841: 56                 push        esi
  00402842: 8B 74 24 08        mov         esi,dword ptr [esp+8]
  00402846: 6A 00              push        0
  00402848: 83 26 00           and         dword ptr [esi],0
  0040284B: FF 15 48 70 40 00  call        dword ptr ds:[00407048h]
  00402851: 66 81 38 4D 5A     cmp         word ptr [eax],5A4Dh
  00402856: 75 14              jne         0040286C
  00402858: 8B 48 3C           mov         ecx,dword ptr [eax+3Ch]
  0040285B: 85 C9              test        ecx,ecx
  0040285D: 74 0D              je          0040286C
  0040285F: 03 C1              add         eax,ecx
  00402861: 8A 48 1A           mov         cl,byte ptr [eax+1Ah]
  00402864: 88 0E              mov         byte ptr [esi],cl
  00402866: 8A 40 1B           mov         al,byte ptr [eax+1Bh]
  00402869: 88 46 01           mov         byte ptr [esi+1],al
  0040286C: 5E                 pop         esi
  0040286D: C3                 ret
  0040286E: 55                 push        ebp
  0040286F: 8B EC              mov         ebp,esp
  00402871: B8 2C 12 00 00     mov         eax,122Ch
  00402876: E8 45 1D 00 00     call        004045C0
  0040287B: 8D 85 68 FF FF FF  lea         eax,[ebp+FFFFFF68h]
  00402881: 53                 push        ebx
  00402882: 50                 push        eax
  00402883: C7 85 68 FF FF FF  mov         dword ptr [ebp+FFFFFF68h],94h
            94 00 00 00
  0040288D: FF 15 50 70 40 00  call        dword ptr ds:[00407050h]
  00402893: 85 C0              test        eax,eax
  00402895: 74 1A              je          004028B1
  00402897: 83 BD 78 FF FF FF  cmp         dword ptr [ebp+FFFFFF78h],2
            02
  0040289E: 75 11              jne         004028B1
  004028A0: 83 BD 6C FF FF FF  cmp         dword ptr [ebp+FFFFFF6Ch],5
            05
  004028A7: 72 08              jb          004028B1
  004028A9: 6A 01              push        1
  004028AB: 58                 pop         eax
  004028AC: E9 02 01 00 00     jmp         004029B3
  004028B1: 8D 85 D4 ED FF FF  lea         eax,[ebp+FFFFEDD4h]
  004028B7: 68 90 10 00 00     push        1090h
  004028BC: 50                 push        eax
  004028BD: 68 B8 71 40 00     push        4071B8h
  004028C2: FF 15 4C 70 40 00  call        dword ptr ds:[0040704Ch]
  004028C8: 85 C0              test        eax,eax
  004028CA: 0F 84 D0 00 00 00  je          004029A0
  004028D0: 33 DB              xor         ebx,ebx
  004028D2: 8D 8D D4 ED FF FF  lea         ecx,[ebp+FFFFEDD4h]
  004028D8: 38 9D D4 ED FF FF  cmp         byte ptr [ebp+FFFFEDD4h],bl
  004028DE: 74 13              je          004028F3
  004028E0: 8A 01              mov         al,byte ptr [ecx]
  004028E2: 3C 61              cmp         al,61h
  004028E4: 7C 08              jl          004028EE
  004028E6: 3C 7A              cmp         al,7Ah
  004028E8: 7F 04              jg          004028EE
  004028EA: 2C 20              sub         al,20h
  004028EC: 88 01              mov         byte ptr [ecx],al
  004028EE: 41                 inc         ecx
  004028EF: 38 19              cmp         byte ptr [ecx],bl
  004028F1: 75 ED              jne         004028E0
  004028F3: 8D 85 D4 ED FF FF  lea         eax,[ebp+FFFFEDD4h]
  004028F9: 6A 16              push        16h
  004028FB: 50                 push        eax
  004028FC: 68 A0 71 40 00     push        4071A0h
  00402901: E8 7A 1C 00 00     call        00404580
  00402906: 83 C4 0C           add         esp,0Ch
  00402909: 85 C0              test        eax,eax
  0040290B: 75 08              jne         00402915
  0040290D: 8D 85 D4 ED FF FF  lea         eax,[ebp+FFFFEDD4h]
  00402913: EB 49              jmp         0040295E
  00402915: 8D 85 64 FE FF FF  lea         eax,[ebp+FFFFFE64h]
  0040291B: 68 04 01 00 00     push        104h
  00402920: 50                 push        eax
  00402921: 53                 push        ebx
  00402922: FF 15 20 70 40 00  call        dword ptr ds:[00407020h]
  00402928: 38 9D 64 FE FF FF  cmp         byte ptr [ebp+FFFFFE64h],bl
  0040292E: 8D 8D 64 FE FF FF  lea         ecx,[ebp+FFFFFE64h]
  00402934: 74 13              je          00402949
  00402936: 8A 01              mov         al,byte ptr [ecx]
  00402938: 3C 61              cmp         al,61h
  0040293A: 7C 08              jl          00402944
  0040293C: 3C 7A              cmp         al,7Ah
  0040293E: 7F 04              jg          00402944
  00402940: 2C 20              sub         al,20h
  00402942: 88 01              mov         byte ptr [ecx],al
  00402944: 41                 inc         ecx
  00402945: 38 19              cmp         byte ptr [ecx],bl
  00402947: 75 ED              jne         00402936
  00402949: 8D 85 64 FE FF FF  lea         eax,[ebp+FFFFFE64h]
  0040294F: 50                 push        eax
  00402950: 8D 85 D4 ED FF FF  lea         eax,[ebp+FFFFEDD4h]
  00402956: 50                 push        eax
  00402957: E8 A4 1B 00 00     call        00404500
  0040295C: 59                 pop         ecx
  0040295D: 59                 pop         ecx
  0040295E: 3B C3              cmp         eax,ebx
  00402960: 74 3E              je          004029A0
  00402962: 6A 2C              push        2Ch
  00402964: 50                 push        eax
  00402965: E8 D6 1A 00 00     call        00404440
  0040296A: 59                 pop         ecx
  0040296B: 3B C3              cmp         eax,ebx
  0040296D: 59                 pop         ecx
  0040296E: 74 30              je          004029A0
  00402970: 40                 inc         eax
  00402971: 8B C8              mov         ecx,eax
  00402973: 38 18              cmp         byte ptr [eax],bl
  00402975: 74 0E              je          00402985
  00402977: 80 39 3B           cmp         byte ptr [ecx],3Bh
  0040297A: 75 04              jne         00402980
  0040297C: 88 19              mov         byte ptr [ecx],bl
  0040297E: EB 01              jmp         00402981
  00402980: 41                 inc         ecx
  00402981: 38 19              cmp         byte ptr [ecx],bl
  00402983: 75 F2              jne         00402977
  00402985: 6A 0A              push        0Ah
  00402987: 53                 push        ebx
  00402988: 50                 push        eax
  00402989: E8 77 18 00 00     call        00404205
  0040298E: 83 C4 0C           add         esp,0Ch
  00402991: 83 F8 02           cmp         eax,2
  00402994: 74 1D              je          004029B3
  00402996: 83 F8 03           cmp         eax,3
  00402999: 74 18              je          004029B3
  0040299B: 83 F8 01           cmp         eax,1
  0040299E: 74 13              je          004029B3
  004029A0: 8D 45 FC           lea         eax,[ebp-4]
  004029A3: 50                 push        eax
  004029A4: E8 98 FE FF FF     call        00402841
  004029A9: 80 7D FC 06        cmp         byte ptr [ebp-4],6
  004029AD: 59                 pop         ecx
  004029AE: 1B C0              sbb         eax,eax
  004029B0: 83 C0 03           add         eax,3
  004029B3: 5B                 pop         ebx
  004029B4: C9                 leave
  004029B5: C3                 ret
  004029B6: 33 C0              xor         eax,eax
  004029B8: 6A 00              push        0
  004029BA: 39 44 24 08        cmp         dword ptr [esp+8],eax
  004029BE: 68 00 10 00 00     push        1000h
  004029C3: 0F 94 C0           sete        al
  004029C6: 50                 push        eax
  004029C7: FF 15 58 70 40 00  call        dword ptr ds:[00407058h]
  004029CD: 85 C0              test        eax,eax
  004029CF: A3 08 AD 40 00     mov         dword ptr ds:[0040AD08h],eax
  004029D4: 74 36              je          00402A0C
  004029D6: E8 93 FE FF FF     call        0040286E
  004029DB: 83 F8 03           cmp         eax,3
  004029DE: A3 0C AD 40 00     mov         dword ptr ds:[0040AD0Ch],eax
  004029E3: 75 0D              jne         004029F2
  004029E5: 68 F8 03 00 00     push        3F8h
  004029EA: E8 00 1C 00 00     call        004045EF
  004029EF: 59                 pop         ecx
  004029F0: EB 0A              jmp         004029FC
  004029F2: 83 F8 02           cmp         eax,2
  004029F5: 75 18              jne         00402A0F
  004029F7: E8 3A 27 00 00     call        00405136
  004029FC: 85 C0              test        eax,eax
  004029FE: 75 0F              jne         00402A0F
  00402A00: FF 35 08 AD 40 00  push        dword ptr ds:[0040AD08h]
  00402A06: FF 15 54 70 40 00  call        dword ptr ds:[00407054h]
  00402A0C: 33 C0              xor         eax,eax
  00402A0E: C3                 ret
  00402A0F: 6A 01              push        1
  00402A11: 58                 pop         eax
  00402A12: C3                 ret
  00402A13: CC                 int         3
  00402A14: 55                 push        ebp
  00402A15: 8B EC              mov         ebp,esp
  00402A17: 53                 push        ebx
  00402A18: 56                 push        esi
  00402A19: 57                 push        edi
  00402A1A: 55                 push        ebp
  00402A1B: 6A 00              push        0
  00402A1D: 6A 00              push        0
  00402A1F: 68 2C 2A 40 00     push        402A2Ch
  00402A24: FF 75 08           push        dword ptr [ebp+8]
  00402A27: E8 8A 44 00 00     call        00406EB6
  00402A2C: 5D                 pop         ebp
  00402A2D: 5F                 pop         edi
  00402A2E: 5E                 pop         esi
  00402A2F: 5B                 pop         ebx
  00402A30: 8B E5              mov         esp,ebp
  00402A32: 5D                 pop         ebp
  00402A33: C3                 ret
  00402A34: 8B 4C 24 04        mov         ecx,dword ptr [esp+4]
  00402A38: F7 41 04 06 00 00  test        dword ptr [ecx+4],6
            00
  00402A3F: B8 01 00 00 00     mov         eax,1
  00402A44: 74 0F              je          00402A55
  00402A46: 8B 44 24 08        mov         eax,dword ptr [esp+8]
  00402A4A: 8B 54 24 10        mov         edx,dword ptr [esp+10h]
  00402A4E: 89 02              mov         dword ptr [edx],eax
  00402A50: B8 03 00 00 00     mov         eax,3
  00402A55: C3                 ret
  00402A56: 53                 push        ebx
  00402A57: 56                 push        esi
  00402A58: 57                 push        edi
  00402A59: 8B 44 24 10        mov         eax,dword ptr [esp+10h]
  00402A5D: 50                 push        eax
  00402A5E: 6A FE              push        0FFFFFFFEh
  00402A60: 68 34 2A 40 00     push        402A34h
  00402A65: 64 FF 35 00 00 00  push        dword ptr fs:[00000000h]
            00
  00402A6C: 64 89 25 00 00 00  mov         dword ptr fs:[00000000h],esp
            00
  00402A73: 8B 44 24 20        mov         eax,dword ptr [esp+20h]
  00402A77: 8B 58 08           mov         ebx,dword ptr [eax+8]
  00402A7A: 8B 70 0C           mov         esi,dword ptr [eax+0Ch]
  00402A7D: 83 FE FF           cmp         esi,0FFFFFFFFh
  00402A80: 74 2E              je          00402AB0
  00402A82: 3B 74 24 24        cmp         esi,dword ptr [esp+24h]
  00402A86: 74 28              je          00402AB0
  00402A88: 8D 34 76           lea         esi,[esi+esi*2]
  00402A8B: 8B 0C B3           mov         ecx,dword ptr [ebx+esi*4]
  00402A8E: 89 4C 24 08        mov         dword ptr [esp+8],ecx
  00402A92: 89 48 0C           mov         dword ptr [eax+0Ch],ecx
  00402A95: 83 7C B3 04 00     cmp         dword ptr [ebx+esi*4+4],0
  00402A9A: 75 12              jne         00402AAE
  00402A9C: 68 01 01 00 00     push        101h
  00402AA1: 8B 44 B3 08        mov         eax,dword ptr [ebx+esi*4+8]
  00402AA5: E8 40 00 00 00     call        00402AEA
  00402AAA: FF 54 B3 08        call        dword ptr [ebx+esi*4+8]
  00402AAE: EB C3              jmp         00402A73
  00402AB0: 64 8F 05 00 00 00  pop         dword ptr fs:[00000000h]
            00
  00402AB7: 83 C4 0C           add         esp,0Ch
  00402ABA: 5F                 pop         edi
  00402ABB: 5E                 pop         esi
  00402ABC: 5B                 pop         ebx
  00402ABD: C3                 ret
  00402ABE: 33 C0              xor         eax,eax
  00402AC0: 64 8B 0D 00 00 00  mov         ecx,dword ptr fs:[00000000h]
            00
  00402AC7: 81 79 04 34 2A 40  cmp         dword ptr [ecx+4],402A34h
            00
  00402ACE: 75 10              jne         00402AE0
  00402AD0: 8B 51 0C           mov         edx,dword ptr [ecx+0Ch]
  00402AD3: 8B 52 0C           mov         edx,dword ptr [edx+0Ch]
  00402AD6: 39 51 08           cmp         dword ptr [ecx+8],edx
  00402AD9: 75 05              jne         00402AE0
  00402ADB: B8 01 00 00 00     mov         eax,1
  00402AE0: C3                 ret
  00402AE1: 53                 push        ebx
  00402AE2: 51                 push        ecx
  00402AE3: BB 74 83 40 00     mov         ebx,408374h
  00402AE8: EB 0A              jmp         00402AF4
  00402AEA: 53                 push        ebx
  00402AEB: 51                 push        ecx
  00402AEC: BB 74 83 40 00     mov         ebx,408374h
  00402AF1: 8B 4D 08           mov         ecx,dword ptr [ebp+8]
  00402AF4: 89 4B 08           mov         dword ptr [ebx+8],ecx
  00402AF7: 89 43 04           mov         dword ptr [ebx+4],eax
  00402AFA: 89 6B 0C           mov         dword ptr [ebx+0Ch],ebp
  00402AFD: 59                 pop         ecx
  00402AFE: 5B                 pop         ebx
  00402AFF: C2 04 00           ret         4
  00402B02: CC                 int         3
  00402B03: CC                 int         3
  00402B04: 56                 push        esi
  00402B05: 43                 inc         ebx
  00402B06: 32 30              xor         dh,byte ptr [eax]
  00402B08: 58                 pop         eax
  00402B09: 43                 inc         ebx
  00402B0A: 30 30              xor         byte ptr [eax],dh
  00402B0C: 55                 push        ebp
  00402B0D: 8B EC              mov         ebp,esp
  00402B0F: 83 EC 08           sub         esp,8
  00402B12: 53                 push        ebx
  00402B13: 56                 push        esi
  00402B14: 57                 push        edi
  00402B15: 55                 push        ebp
  00402B16: FC                 cld
  00402B17: 8B 5D 0C           mov         ebx,dword ptr [ebp+0Ch]
  00402B1A: 8B 45 08           mov         eax,dword ptr [ebp+8]
  00402B1D: F7 40 04 06 00 00  test        dword ptr [eax+4],6
            00
  00402B24: 0F 85 82 00 00 00  jne         00402BAC
  00402B2A: 89 45 F8           mov         dword ptr [ebp-8],eax
  00402B2D: 8B 45 10           mov         eax,dword ptr [ebp+10h]
  00402B30: 89 45 FC           mov         dword ptr [ebp-4],eax
  00402B33: 8D 45 F8           lea         eax,[ebp-8]
  00402B36: 89 43 FC           mov         dword ptr [ebx-4],eax
  00402B39: 8B 73 0C           mov         esi,dword ptr [ebx+0Ch]
  00402B3C: 8B 7B 08           mov         edi,dword ptr [ebx+8]
  00402B3F: 83 FE FF           cmp         esi,0FFFFFFFFh
  00402B42: 74 61              je          00402BA5
  00402B44: 8D 0C 76           lea         ecx,[esi+esi*2]
  00402B47: 83 7C 8F 04 00     cmp         dword ptr [edi+ecx*4+4],0
  00402B4C: 74 45              je          00402B93
  00402B4E: 56                 push        esi
  00402B4F: 55                 push        ebp
  00402B50: 8D 6B 10           lea         ebp,[ebx+10h]
  00402B53: FF 54 8F 04        call        dword ptr [edi+ecx*4+4]
  00402B57: 5D                 pop         ebp
  00402B58: 5E                 pop         esi
  00402B59: 8B 5D 0C           mov         ebx,dword ptr [ebp+0Ch]
  00402B5C: 0B C0              or          eax,eax
  00402B5E: 74 33              je          00402B93
  00402B60: 78 3C              js          00402B9E
  00402B62: 8B 7B 08           mov         edi,dword ptr [ebx+8]
  00402B65: 53                 push        ebx
  00402B66: E8 A9 FE FF FF     call        00402A14
  00402B6B: 83 C4 04           add         esp,4
  00402B6E: 8D 6B 10           lea         ebp,[ebx+10h]
  00402B71: 56                 push        esi
  00402B72: 53                 push        ebx
  00402B73: E8 DE FE FF FF     call        00402A56
  00402B78: 83 C4 08           add         esp,8
  00402B7B: 8D 0C 76           lea         ecx,[esi+esi*2]
  00402B7E: 6A 01              push        1
  00402B80: 8B 44 8F 08        mov         eax,dword ptr [edi+ecx*4+8]
  00402B84: E8 61 FF FF FF     call        00402AEA
  00402B89: 8B 04 8F           mov         eax,dword ptr [edi+ecx*4]
  00402B8C: 89 43 0C           mov         dword ptr [ebx+0Ch],eax
  00402B8F: FF 54 8F 08        call        dword ptr [edi+ecx*4+8]
  00402B93: 8B 7B 08           mov         edi,dword ptr [ebx+8]
  00402B96: 8D 0C 76           lea         ecx,[esi+esi*2]
  00402B99: 8B 34 8F           mov         esi,dword ptr [edi+ecx*4]
  00402B9C: EB A1              jmp         00402B3F
  00402B9E: B8 00 00 00 00     mov         eax,0
  00402BA3: EB 1C              jmp         00402BC1
  00402BA5: B8 01 00 00 00     mov         eax,1
  00402BAA: EB 15              jmp         00402BC1
  00402BAC: 55                 push        ebp
  00402BAD: 8D 6B 10           lea         ebp,[ebx+10h]
  00402BB0: 6A FF              push        0FFFFFFFFh
  00402BB2: 53                 push        ebx
  00402BB3: E8 9E FE FF FF     call        00402A56
  00402BB8: 83 C4 08           add         esp,8
  00402BBB: 5D                 pop         ebp
  00402BBC: B8 01 00 00 00     mov         eax,1
  00402BC1: 5D                 pop         ebp
  00402BC2: 5F                 pop         edi
  00402BC3: 5E                 pop         esi
  00402BC4: 5B                 pop         ebx
  00402BC5: 8B E5              mov         esp,ebp
  00402BC7: 5D                 pop         ebp
  00402BC8: C3                 ret
  00402BC9: 55                 push        ebp
  00402BCA: 8B 4C 24 08        mov         ecx,dword ptr [esp+8]
  00402BCE: 8B 29              mov         ebp,dword ptr [ecx]
  00402BD0: 8B 41 1C           mov         eax,dword ptr [ecx+1Ch]
  00402BD3: 50                 push        eax
  00402BD4: 8B 41 18           mov         eax,dword ptr [ecx+18h]
  00402BD7: 50                 push        eax
  00402BD8: E8 79 FE FF FF     call        00402A56
  00402BDD: 83 C4 08           add         esp,8
  00402BE0: 5D                 pop         ebp
  00402BE1: C2 04 00           ret         4
  00402BE4: A1 08 A9 40 00     mov         eax,dword ptr ds:[0040A908h]
  00402BE9: 83 F8 01           cmp         eax,1
  00402BEC: 74 0D              je          00402BFB
  00402BEE: 85 C0              test        eax,eax
  00402BF0: 75 2A              jne         00402C1C
  00402BF2: 83 3D 44 80 40 00  cmp         dword ptr ds:[00408044h],1
            01
  00402BF9: 75 21              jne         00402C1C
  00402BFB: 68 FC 00 00 00     push        0FCh
  00402C00: E8 18 00 00 00     call        00402C1D
  00402C05: A1 70 AA 40 00     mov         eax,dword ptr ds:[0040AA70h]
  00402C0A: 59                 pop         ecx
  00402C0B: 85 C0              test        eax,eax
  00402C0D: 74 02              je          00402C11
  00402C0F: FF D0              call        eax
  00402C11: 68 FF 00 00 00     push        0FFh
  00402C16: E8 02 00 00 00     call        00402C1D
  00402C1B: 59                 pop         ecx
  00402C1C: C3                 ret
  00402C1D: 55                 push        ebp
  00402C1E: 8B EC              mov         ebp,esp
  00402C20: 81 EC A4 01 00 00  sub         esp,1A4h
  00402C26: 8B 55 08           mov         edx,dword ptr [ebp+8]
  00402C29: 33 C9              xor         ecx,ecx
  00402C2B: B8 88 83 40 00     mov         eax,408388h
  00402C30: 3B 10              cmp         edx,dword ptr [eax]
  00402C32: 74 0B              je          00402C3F
  00402C34: 83 C0 08           add         eax,8
  00402C37: 41                 inc         ecx
  00402C38: 3D 18 84 40 00     cmp         eax,408418h
  00402C3D: 72 F1              jb          00402C30
  00402C3F: 56                 push        esi
  00402C40: 8B F1              mov         esi,ecx
  00402C42: C1 E6 03           shl         esi,3
  00402C45: 3B 96 88 83 40 00  cmp         edx,dword ptr [esi+00408388h]
  00402C4B: 0F 85 1C 01 00 00  jne         00402D6D
  00402C51: A1 08 A9 40 00     mov         eax,dword ptr ds:[0040A908h]
  00402C56: 83 F8 01           cmp         eax,1
  00402C59: 0F 84 E8 00 00 00  je          00402D47
  00402C5F: 85 C0              test        eax,eax
  00402C61: 75 0D              jne         00402C70
  00402C63: 83 3D 44 80 40 00  cmp         dword ptr ds:[00408044h],1
            01
  00402C6A: 0F 84 D7 00 00 00  je          00402D47
  00402C70: 81 FA FC 00 00 00  cmp         edx,0FCh
  00402C76: 0F 84 F1 00 00 00  je          00402D6D
  00402C7C: 8D 85 5C FE FF FF  lea         eax,[ebp+FFFFFE5Ch]
  00402C82: 68 04 01 00 00     push        104h
  00402C87: 50                 push        eax
  00402C88: 6A 00              push        0
  00402C8A: FF 15 20 70 40 00  call        dword ptr ds:[00407020h]
  00402C90: 85 C0              test        eax,eax
  00402C92: 75 13              jne         00402CA7
  00402C94: 8D 85 5C FE FF FF  lea         eax,[ebp+FFFFFE5Ch]
  00402C9A: 68 A8 74 40 00     push        4074A8h
  00402C9F: 50                 push        eax
  00402CA0: E8 3B 01 00 00     call        00402DE0
  00402CA5: 59                 pop         ecx
  00402CA6: 59                 pop         ecx
  00402CA7: 8D 85 5C FE FF FF  lea         eax,[ebp+FFFFFE5Ch]
  00402CAD: 57                 push        edi
  00402CAE: 50                 push        eax
  00402CAF: 8D BD 5C FE FF FF  lea         edi,[ebp+FFFFFE5Ch]
  00402CB5: E8 76 02 00 00     call        00402F30
  00402CBA: 40                 inc         eax
  00402CBB: 59                 pop         ecx
  00402CBC: 83 F8 3C           cmp         eax,3Ch
  00402CBF: 76 29              jbe         00402CEA
  00402CC1: 8D 85 5C FE FF FF  lea         eax,[ebp+FFFFFE5Ch]
  00402CC7: 50                 push        eax
  00402CC8: E8 63 02 00 00     call        00402F30
  00402CCD: 8B F8              mov         edi,eax
  00402CCF: 8D 85 5C FE FF FF  lea         eax,[ebp+FFFFFE5Ch]
  00402CD5: 83 E8 3B           sub         eax,3Bh
  00402CD8: 6A 03              push        3
  00402CDA: 03 F8              add         edi,eax
  00402CDC: 68 A4 74 40 00     push        4074A4h
  00402CE1: 57                 push        edi
  00402CE2: E8 A9 2B 00 00     call        00405890
  00402CE7: 83 C4 10           add         esp,10h
  00402CEA: 8D 85 60 FF FF FF  lea         eax,[ebp+FFFFFF60h]
  00402CF0: 68 88 74 40 00     push        407488h
  00402CF5: 50                 push        eax
  00402CF6: E8 E5 00 00 00     call        00402DE0
  00402CFB: 8D 85 60 FF FF FF  lea         eax,[ebp+FFFFFF60h]
  00402D01: 57                 push        edi
  00402D02: 50                 push        eax
  00402D03: E8 E8 00 00 00     call        00402DF0
  00402D08: 8D 85 60 FF FF FF  lea         eax,[ebp+FFFFFF60h]
  00402D0E: 68 84 74 40 00     push        407484h
  00402D13: 50                 push        eax
  00402D14: E8 D7 00 00 00     call        00402DF0
  00402D19: FF B6 8C 83 40 00  push        dword ptr [esi+0040838Ch]
  00402D1F: 8D 85 60 FF FF FF  lea         eax,[ebp+FFFFFF60h]
  00402D25: 50                 push        eax
  00402D26: E8 C5 00 00 00     call        00402DF0
  00402D2B: 68 10 20 01 00     push        12010h
  00402D30: 8D 85 60 FF FF FF  lea         eax,[ebp+FFFFFF60h]
  00402D36: 68 5C 74 40 00     push        40745Ch
  00402D3B: 50                 push        eax
  00402D3C: E8 C2 2A 00 00     call        00405803
  00402D41: 83 C4 2C           add         esp,2Ch
  00402D44: 5F                 pop         edi
  00402D45: EB 26              jmp         00402D6D
  00402D47: 8D 45 08           lea         eax,[ebp+8]
  00402D4A: 8D B6 8C 83 40 00  lea         esi,[esi+0040838Ch]
  00402D50: 6A 00              push        0
  00402D52: 50                 push        eax
  00402D53: FF 36              push        dword ptr [esi]
  00402D55: E8 D6 01 00 00     call        00402F30
  00402D5A: 59                 pop         ecx
  00402D5B: 50                 push        eax
  00402D5C: FF 36              push        dword ptr [esi]
  00402D5E: 6A F4              push        0FFFFFFF4h
  00402D60: FF 15 3C 70 40 00  call        dword ptr ds:[0040703Ch]
  00402D66: 50                 push        eax
  00402D67: FF 15 68 70 40 00  call        dword ptr ds:[00407068h]
  00402D6D: 5E                 pop         esi
  00402D6E: C9                 leave
  00402D6F: C3                 ret
  00402D70: 55                 push        ebp
  00402D71: 8B EC              mov         ebp,esp
  00402D73: 51                 push        ecx
  00402D74: 56                 push        esi
  00402D75: 8B 75 08           mov         esi,dword ptr [ebp+8]
  00402D78: 85 F6              test        esi,esi
  00402D7A: 74 5A              je          00402DD6
  00402D7C: A1 0C AD 40 00     mov         eax,dword ptr ds:[0040AD0Ch]
  00402D81: 83 F8 03           cmp         eax,3
  00402D84: 75 16              jne         00402D9C
  00402D86: 56                 push        esi
  00402D87: E8 AB 18 00 00     call        00404637
  00402D8C: 59                 pop         ecx
  00402D8D: 85 C0              test        eax,eax
  00402D8F: 56                 push        esi
  00402D90: 74 36              je          00402DC8
  00402D92: 50                 push        eax
  00402D93: E8 CA 18 00 00     call        00404662
  00402D98: 59                 pop         ecx
  00402D99: 59                 pop         ecx
  00402D9A: EB 3A              jmp         00402DD6
  00402D9C: 83 F8 02           cmp         eax,2
  00402D9F: 75 26              jne         00402DC7
  00402DA1: 8D 45 08           lea         eax,[ebp+8]
  00402DA4: 50                 push        eax
  00402DA5: 8D 45 FC           lea         eax,[ebp-4]
  00402DA8: 50                 push        eax
  00402DA9: 56                 push        esi
  00402DAA: E8 E3 25 00 00     call        00405392
  00402DAF: 83 C4 0C           add         esp,0Ch
  00402DB2: 85 C0              test        eax,eax
  00402DB4: 74 11              je          00402DC7
  00402DB6: 50                 push        eax
  00402DB7: FF 75 08           push        dword ptr [ebp+8]
  00402DBA: FF 75 FC           push        dword ptr [ebp-4]
  00402DBD: E8 27 26 00 00     call        004053E9
  00402DC2: 83 C4 0C           add         esp,0Ch
  00402DC5: EB 0F              jmp         00402DD6
  00402DC7: 56                 push        esi
  00402DC8: 6A 00              push        0
  00402DCA: FF 35 08 AD 40 00  push        dword ptr ds:[0040AD08h]
  00402DD0: FF 15 60 70 40 00  call        dword ptr ds:[00407060h]
  00402DD6: 5E                 pop         esi
  00402DD7: C9                 leave
  00402DD8: C3                 ret
  00402DD9: CC                 int         3
  00402DDA: CC                 int         3
  00402DDB: CC                 int         3
  00402DDC: CC                 int         3
  00402DDD: CC                 int         3
  00402DDE: CC                 int         3
  00402DDF: CC                 int         3
  00402DE0: 57                 push        edi
  00402DE1: 8B 7C 24 08        mov         edi,dword ptr [esp+8]
  00402DE5: EB 6A              jmp         00402E51
  00402DE7: 8D A4 24 00 00 00  lea         esp,[esp+00000000h]
            00
  00402DEE: 8B FF              mov         edi,edi
  00402DF0: 8B 4C 24 04        mov         ecx,dword ptr [esp+4]
  00402DF4: 57                 push        edi
  00402DF5: F7 C1 03 00 00 00  test        ecx,3
  00402DFB: 74 0F              je          00402E0C
  00402DFD: 8A 01              mov         al,byte ptr [ecx]
  00402DFF: 41                 inc         ecx
  00402E00: 84 C0              test        al,al
  00402E02: 74 3B              je          00402E3F
  00402E04: F7 C1 03 00 00 00  test        ecx,3
  00402E0A: 75 F1              jne         00402DFD
  00402E0C: 8B 01              mov         eax,dword ptr [ecx]
  00402E0E: BA FF FE FE 7E     mov         edx,7EFEFEFFh
  00402E13: 03 D0              add         edx,eax
  00402E15: 83 F0 FF           xor         eax,0FFFFFFFFh
  00402E18: 33 C2              xor         eax,edx
  00402E1A: 83 C1 04           add         ecx,4
  00402E1D: A9 00 01 01 81     test        eax,81010100h
  00402E22: 74 E8              je          00402E0C
  00402E24: 8B 41 FC           mov         eax,dword ptr [ecx-4]
  00402E27: 84 C0              test        al,al
  00402E29: 74 23              je          00402E4E
  00402E2B: 84 E4              test        ah,ah
  00402E2D: 74 1A              je          00402E49
  00402E2F: A9 00 00 FF 00     test        eax,0FF0000h
  00402E34: 74 0E              je          00402E44
  00402E36: A9 00 00 00 FF     test        eax,0FF000000h
  00402E3B: 74 02              je          00402E3F
  00402E3D: EB CD              jmp         00402E0C
  00402E3F: 8D 79 FF           lea         edi,[ecx-1]
  00402E42: EB 0D              jmp         00402E51
  00402E44: 8D 79 FE           lea         edi,[ecx-2]
  00402E47: EB 08              jmp         00402E51
  00402E49: 8D 79 FD           lea         edi,[ecx-3]
  00402E4C: EB 03              jmp         00402E51
  00402E4E: 8D 79 FC           lea         edi,[ecx-4]
  00402E51: 8B 4C 24 0C        mov         ecx,dword ptr [esp+0Ch]
  00402E55: F7 C1 03 00 00 00  test        ecx,3
  00402E5B: 74 19              je          00402E76
  00402E5D: 8A 11              mov         dl,byte ptr [ecx]
  00402E5F: 41                 inc         ecx
  00402E60: 84 D2              test        dl,dl
  00402E62: 74 64              je          00402EC8
  00402E64: 88 17              mov         byte ptr [edi],dl
  00402E66: 47                 inc         edi
  00402E67: F7 C1 03 00 00 00  test        ecx,3
  00402E6D: 75 EE              jne         00402E5D
  00402E6F: EB 05              jmp         00402E76
  00402E71: 89 17              mov         dword ptr [edi],edx
  00402E73: 83 C7 04           add         edi,4
  00402E76: BA FF FE FE 7E     mov         edx,7EFEFEFFh
  00402E7B: 8B 01              mov         eax,dword ptr [ecx]
  00402E7D: 03 D0              add         edx,eax
  00402E7F: 83 F0 FF           xor         eax,0FFFFFFFFh
  00402E82: 33 C2              xor         eax,edx
  00402E84: 8B 11              mov         edx,dword ptr [ecx]
  00402E86: 83 C1 04           add         ecx,4
  00402E89: A9 00 01 01 81     test        eax,81010100h
  00402E8E: 74 E1              je          00402E71
  00402E90: 84 D2              test        dl,dl
  00402E92: 74 34              je          00402EC8
  00402E94: 84 F6              test        dh,dh
  00402E96: 74 27              je          00402EBF
  00402E98: F7 C2 00 00 FF 00  test        edx,0FF0000h
  00402E9E: 74 12              je          00402EB2
  00402EA0: F7 C2 00 00 00 FF  test        edx,0FF000000h
  00402EA6: 74 02              je          00402EAA
  00402EA8: EB C7              jmp         00402E71
  00402EAA: 89 17              mov         dword ptr [edi],edx
  00402EAC: 8B 44 24 08        mov         eax,dword ptr [esp+8]
  00402EB0: 5F                 pop         edi
  00402EB1: C3                 ret
  00402EB2: 66 89 17           mov         word ptr [edi],dx
  00402EB5: 8B 44 24 08        mov         eax,dword ptr [esp+8]
  00402EB9: C6 47 02 00        mov         byte ptr [edi+2],0
  00402EBD: 5F                 pop         edi
  00402EBE: C3                 ret
  00402EBF: 66 89 17           mov         word ptr [edi],dx
  00402EC2: 8B 44 24 08        mov         eax,dword ptr [esp+8]
  00402EC6: 5F                 pop         edi
  00402EC7: C3                 ret
  00402EC8: 88 17              mov         byte ptr [edi],dl
  00402ECA: 8B 44 24 08        mov         eax,dword ptr [esp+8]
  00402ECE: 5F                 pop         edi
  00402ECF: C3                 ret
  00402ED0: 55                 push        ebp
  00402ED1: 8B EC              mov         ebp,esp
  00402ED3: 33 C0              xor         eax,eax
  00402ED5: 39 05 EC AA 40 00  cmp         dword ptr ds:[0040AAECh],eax
  00402EDB: 75 0F              jne         00402EEC
  00402EDD: FF 75 0C           push        dword ptr [ebp+0Ch]
  00402EE0: FF 75 08           push        dword ptr [ebp+8]
  00402EE3: E8 A8 2A 00 00     call        00405990
  00402EE8: 59                 pop         ecx
  00402EE9: 59                 pop         ecx
  00402EEA: 5D                 pop         ebp
  00402EEB: C3                 ret
  00402EEC: 8B 55 08           mov         edx,dword ptr [ebp+8]
  00402EEF: 53                 push        ebx
  00402EF0: 56                 push        esi
  00402EF1: 8A 1A              mov         bl,byte ptr [edx]
  00402EF3: 0F B6 CB           movzx       ecx,bl
  00402EF6: 0F B6 F1           movzx       esi,cl
  00402EF9: F6 86 01 AC 40 00  test        byte ptr [esi+0040AC01h],4
            04
  00402F00: 74 1E              je          00402F20
  00402F02: 8A 5A 01           mov         bl,byte ptr [edx+1]
  00402F05: 42                 inc         edx
  00402F06: 84 DB              test        bl,bl
  00402F08: 74 12              je          00402F1C
  00402F0A: 0F B6 F3           movzx       esi,bl
  00402F0D: C1 E1 08           shl         ecx,8
  00402F10: 0B CE              or          ecx,esi
  00402F12: 39 4D 0C           cmp         dword ptr [ebp+0Ch],ecx
  00402F15: 75 10              jne         00402F27
  00402F17: 8D 42 FF           lea         eax,[edx-1]
  00402F1A: EB 0B              jmp         00402F27
  00402F1C: 85 C0              test        eax,eax
  00402F1E: EB 03              jmp         00402F23
  00402F20: 39 4D 0C           cmp         dword ptr [ebp+0Ch],ecx
  00402F23: 75 02              jne         00402F27
  00402F25: 8B C2              mov         eax,edx
  00402F27: 42                 inc         edx
  00402F28: 84 DB              test        bl,bl
  00402F2A: 75 C5              jne         00402EF1
  00402F2C: 5E                 pop         esi
  00402F2D: 5B                 pop         ebx
  00402F2E: 5D                 pop         ebp
  00402F2F: C3                 ret
  00402F30: 8B 4C 24 04        mov         ecx,dword ptr [esp+4]
  00402F34: F7 C1 03 00 00 00  test        ecx,3
  00402F3A: 74 14              je          00402F50
  00402F3C: 8A 01              mov         al,byte ptr [ecx]
  00402F3E: 41                 inc         ecx
  00402F3F: 84 C0              test        al,al
  00402F41: 74 40              je          00402F83
  00402F43: F7 C1 03 00 00 00  test        ecx,3
  00402F49: 75 F1              jne         00402F3C
  00402F4B: 05 00 00 00 00     add         eax,0
  00402F50: 8B 01              mov         eax,dword ptr [ecx]
  00402F52: BA FF FE FE 7E     mov         edx,7EFEFEFFh
  00402F57: 03 D0              add         edx,eax
  00402F59: 83 F0 FF           xor         eax,0FFFFFFFFh
  00402F5C: 33 C2              xor         eax,edx
  00402F5E: 83 C1 04           add         ecx,4
  00402F61: A9 00 01 01 81     test        eax,81010100h
  00402F66: 74 E8              je          00402F50
  00402F68: 8B 41 FC           mov         eax,dword ptr [ecx-4]
  00402F6B: 84 C0              test        al,al
  00402F6D: 74 32              je          00402FA1
  00402F6F: 84 E4              test        ah,ah
  00402F71: 74 24              je          00402F97
  00402F73: A9 00 00 FF 00     test        eax,0FF0000h
  00402F78: 74 13              je          00402F8D
  00402F7A: A9 00 00 00 FF     test        eax,0FF000000h
  00402F7F: 74 02              je          00402F83
  00402F81: EB CD              jmp         00402F50
  00402F83: 8D 41 FF           lea         eax,[ecx-1]
  00402F86: 8B 4C 24 04        mov         ecx,dword ptr [esp+4]
  00402F8A: 2B C1              sub         eax,ecx
  00402F8C: C3                 ret
  00402F8D: 8D 41 FE           lea         eax,[ecx-2]
  00402F90: 8B 4C 24 04        mov         ecx,dword ptr [esp+4]
  00402F94: 2B C1              sub         eax,ecx
  00402F96: C3                 ret
  00402F97: 8D 41 FD           lea         eax,[ecx-3]
  00402F9A: 8B 4C 24 04        mov         ecx,dword ptr [esp+4]
  00402F9E: 2B C1              sub         eax,ecx
  00402FA0: C3                 ret
  00402FA1: 8D 41 FC           lea         eax,[ecx-4]
  00402FA4: 8B 4C 24 04        mov         ecx,dword ptr [esp+4]
  00402FA8: 2B C1              sub         eax,ecx
  00402FAA: C3                 ret
  00402FAB: 55                 push        ebp
  00402FAC: 8B EC              mov         ebp,esp
  00402FAE: 8B 4D 08           mov         ecx,dword ptr [ebp+8]
  00402FB1: 80 39 3B           cmp         byte ptr [ecx],3Bh
  00402FB4: 75 03              jne         00402FB9
  00402FB6: 41                 inc         ecx
  00402FB7: EB F8              jmp         00402FB1
  00402FB9: FF 4D 10           dec         dword ptr [ebp+10h]
  00402FBC: 56                 push        esi
  00402FBD: 8B C1              mov         eax,ecx
  00402FBF: 74 4D              je          0040300E
  00402FC1: 8A 11              mov         dl,byte ptr [ecx]
  00402FC3: 8B 75 0C           mov         esi,dword ptr [ebp+0Ch]
  00402FC6: 84 D2              test        dl,dl
  00402FC8: 74 38              je          00403002
  00402FCA: 80 FA 3B           cmp         dl,3Bh
  00402FCD: 74 33              je          00403002
  00402FCF: 80 FA 22           cmp         dl,22h
  00402FD2: 74 0B              je          00402FDF
  00402FD4: 88 16              mov         byte ptr [esi],dl
  00402FD6: 46                 inc         esi
  00402FD7: 41                 inc         ecx
  00402FD8: FF 4D 10           dec         dword ptr [ebp+10h]
  00402FDB: 74 2D              je          0040300A
  00402FDD: EB 1D              jmp         00402FFC
  00402FDF: 41                 inc         ecx
  00402FE0: 8A 11              mov         dl,byte ptr [ecx]
  00402FE2: 84 D2              test        dl,dl
  00402FE4: 74 10              je          00402FF6
  00402FE6: 80 FA 22           cmp         dl,22h
  00402FE9: 74 0B              je          00402FF6
  00402FEB: 88 16              mov         byte ptr [esi],dl
  00402FED: 46                 inc         esi
  00402FEE: 41                 inc         ecx
  00402FEF: FF 4D 10           dec         dword ptr [ebp+10h]
  00402FF2: 74 16              je          0040300A
  00402FF4: EB EA              jmp         00402FE0
  00402FF6: 80 39 00           cmp         byte ptr [ecx],0
  00402FF9: 74 01              je          00402FFC
  00402FFB: 41                 inc         ecx
  00402FFC: 8A 11              mov         dl,byte ptr [ecx]
  00402FFE: 84 D2              test        dl,dl
  00403000: 75 C8              jne         00402FCA
  00403002: 80 39 3B           cmp         byte ptr [ecx],3Bh
  00403005: 75 0A              jne         00403011
  00403007: 41                 inc         ecx
  00403008: EB F8              jmp         00403002
  0040300A: 8B C1              mov         eax,ecx
  0040300C: EB 03              jmp         00403011
  0040300E: 8B 75 0C           mov         esi,dword ptr [ebp+0Ch]
  00403011: 80 26 00           and         byte ptr [esi],0
  00403014: 2B C1              sub         eax,ecx
  00403016: F7 D8              neg         eax
  00403018: 1B C0              sbb         eax,eax
  0040301A: 5E                 pop         esi
  0040301B: 23 C1              and         eax,ecx
  0040301D: 5D                 pop         ebp
  0040301E: C3                 ret
  0040301F: FF 35 88 AA 40 00  push        dword ptr ds:[0040AA88h]
  00403025: FF 74 24 08        push        dword ptr [esp+8]
  00403029: E8 03 00 00 00     call        00403031
  0040302E: 59                 pop         ecx
  0040302F: 59                 pop         ecx
  00403030: C3                 ret
  00403031: 83 7C 24 04 E0     cmp         dword ptr [esp+4],0FFFFFFE0h
  00403036: 77 22              ja          0040305A
  00403038: FF 74 24 04        push        dword ptr [esp+4]
  0040303C: E8 1C 00 00 00     call        0040305D
  00403041: 85 C0              test        eax,eax
  00403043: 59                 pop         ecx
  00403044: 75 16              jne         0040305C
  00403046: 39 44 24 08        cmp         dword ptr [esp+8],eax
  0040304A: 74 10              je          0040305C
  0040304C: FF 74 24 04        push        dword ptr [esp+4]
  00403050: E8 62 29 00 00     call        004059B7
  00403055: 85 C0              test        eax,eax
  00403057: 59                 pop         ecx
  00403058: 75 DE              jne         00403038
  0040305A: 33 C0              xor         eax,eax
  0040305C: C3                 ret
  0040305D: A1 0C AD 40 00     mov         eax,dword ptr ds:[0040AD0Ch]
  00403062: 56                 push        esi
  00403063: 8B 74 24 08        mov         esi,dword ptr [esp+8]
  00403067: 83 F8 03           cmp         eax,3
  0040306A: 75 15              jne         00403081
  0040306C: 3B 35 D4 AA 40 00  cmp         esi,dword ptr ds:[0040AAD4h]
  00403072: 77 3F              ja          004030B3
  00403074: 56                 push        esi
  00403075: E8 11 19 00 00     call        0040498B
  0040307A: 85 C0              test        eax,eax
  0040307C: 59                 pop         ecx
  0040307D: 74 34              je          004030B3
  0040307F: 5E                 pop         esi
  00403080: C3                 ret
  00403081: 83 F8 02           cmp         eax,2
  00403084: 75 2D              jne         004030B3
  00403086: 8B 44 24 08        mov         eax,dword ptr [esp+8]
  0040308A: 85 C0              test        eax,eax
  0040308C: 74 08              je          00403096
  0040308E: 8D 70 0F           lea         esi,[eax+0Fh]
  00403091: 83 E6 F0           and         esi,0FFFFFFF0h
  00403094: EB 03              jmp         00403099
  00403096: 6A 10              push        10h
  00403098: 5E                 pop         esi
  00403099: 3B 35 E4 A8 40 00  cmp         esi,dword ptr ds:[0040A8E4h]
  0040309F: 77 1F              ja          004030C0
  004030A1: 8B C6              mov         eax,esi
  004030A3: C1 E8 04           shr         eax,4
  004030A6: 50                 push        eax
  004030A7: E8 82 23 00 00     call        0040542E
  004030AC: 85 C0              test        eax,eax
  004030AE: 59                 pop         ecx
  004030AF: 75 1E              jne         004030CF
  004030B1: EB 0D              jmp         004030C0
  004030B3: 85 F6              test        esi,esi
  004030B5: 75 03              jne         004030BA
  004030B7: 6A 01              push        1
  004030B9: 5E                 pop         esi
  004030BA: 83 C6 0F           add         esi,0Fh
  004030BD: 83 E6 F0           and         esi,0FFFFFFF0h
  004030C0: 56                 push        esi
  004030C1: 6A 00              push        0
  004030C3: FF 35 08 AD 40 00  push        dword ptr ds:[0040AD08h]
  004030C9: FF 15 6C 70 40 00  call        dword ptr ds:[0040706Ch]
  004030CF: 5E                 pop         esi
  004030D0: C3                 ret
  004030D1: 55                 push        ebp
  004030D2: 8B EC              mov         ebp,esp
  004030D4: 83 3D EC AA 40 00  cmp         dword ptr ds:[0040AAECh],0
            00
  004030DB: 75 0F              jne         004030EC
  004030DD: FF 75 0C           push        dword ptr [ebp+0Ch]
  004030E0: FF 75 08           push        dword ptr [ebp+8]
  004030E3: E8 58 13 00 00     call        00404440
  004030E8: 59                 pop         ecx
  004030E9: 59                 pop         ecx
  004030EA: 5D                 pop         ebp
  004030EB: C3                 ret
  004030EC: 8B 4D 08           mov         ecx,dword ptr [ebp+8]
  004030EF: 66 0F B6 01        movzx       ax,byte ptr [ecx]
  004030F3: 66 85 C0           test        ax,ax
  004030F6: 74 3A              je          00403132
  004030F8: 0F B6 D0           movzx       edx,al
  004030FB: F6 82 01 AC 40 00  test        byte ptr [edx+0040AC01h],4
            04
  00403102: 74 1A              je          0040311E
  00403104: 8A 51 01           mov         dl,byte ptr [ecx+1]
  00403107: 41                 inc         ecx
  00403108: 84 D2              test        dl,dl
  0040310A: 74 1D              je          00403129
  0040310C: 0F B7 C0           movzx       eax,ax
  0040310F: 0F B6 D2           movzx       edx,dl
  00403112: C1 E0 08           shl         eax,8
  00403115: 0B C2              or          eax,edx
  00403117: 39 45 0C           cmp         dword ptr [ebp+0Ch],eax
  0040311A: 74 11              je          0040312D
  0040311C: EB 08              jmp         00403126
  0040311E: 0F B7 D0           movzx       edx,ax
  00403121: 39 55 0C           cmp         dword ptr [ebp+0Ch],edx
  00403124: 74 0C              je          00403132
  00403126: 41                 inc         ecx
  00403127: EB C6              jmp         004030EF
  00403129: 33 C0              xor         eax,eax
  0040312B: 5D                 pop         ebp
  0040312C: C3                 ret
  0040312D: 8D 41 FF           lea         eax,[ecx-1]
  00403130: 5D                 pop         ebp
  00403131: C3                 ret
  00403132: 0F B7 D0           movzx       edx,ax
  00403135: 8B 45 0C           mov         eax,dword ptr [ebp+0Ch]
  00403138: 2B C2              sub         eax,edx
  0040313A: F7 D8              neg         eax
  0040313C: 1B C0              sbb         eax,eax
  0040313E: F7 D0              not         eax
  00403140: 23 C1              and         eax,ecx
  00403142: 5D                 pop         ebp
  00403143: C3                 ret
  00403144: 55                 push        ebp
  00403145: 8B EC              mov         ebp,esp
  00403147: 83 EC 60           sub         esp,60h
  0040314A: 8B 45 08           mov         eax,dword ptr [ebp+8]
  0040314D: 80 65 FF 00        and         byte ptr [ebp-1],0
  00403151: 53                 push        ebx
  00403152: 56                 push        esi
  00403153: 57                 push        edi
  00403154: 33 FF              xor         edi,edi
  00403156: 3B C7              cmp         eax,edi
  00403158: 89 7D F8           mov         dword ptr [ebp-8],edi
  0040315B: 74 15              je          00403172
  0040315D: 83 F8 01           cmp         eax,1
  00403160: 74 10              je          00403172
  00403162: 7E 30              jle         00403194
  00403164: 83 F8 03           cmp         eax,3
  00403167: 7E 09              jle         00403172
  00403169: 83 F8 04           cmp         eax,4
  0040316C: 75 26              jne         00403194
  0040316E: C6 45 FF 01        mov         byte ptr [ebp-1],1
  00403172: 8B 45 10           mov         eax,dword ptr [ebp+10h]
  00403175: 89 45 F4           mov         dword ptr [ebp-0Ch],eax
  00403178: 8A 08              mov         cl,byte ptr [eax]
  0040317A: 84 C9              test        cl,cl
  0040317C: 74 2B              je          004031A9
  0040317E: 40                 inc         eax
  0040317F: 80 38 00           cmp         byte ptr [eax],0
  00403182: 75 FA              jne         0040317E
  00403184: 80 78 01 00        cmp         byte ptr [eax+1],0
  00403188: 8D 48 01           lea         ecx,[eax+1]
  0040318B: 74 EB              je          00403178
  0040318D: C6 00 20           mov         byte ptr [eax],20h
  00403190: 8B C1              mov         eax,ecx
  00403192: EB E4              jmp         00403178
  00403194: C7 05 0C A9 40 00  mov         dword ptr ds:[0040A90Ch],16h
            16 00 00 00
  0040319E: 89 3D 10 A9 40 00  mov         dword ptr ds:[0040A910h],edi
  004031A4: E9 1C 01 00 00     jmp         004032C5
  004031A9: 6A 44              push        44h
  004031AB: 8D 45 A0           lea         eax,[ebp-60h]
  004031AE: 5E                 pop         esi
  004031AF: 56                 push        esi
  004031B0: 57                 push        edi
  004031B1: 50                 push        eax
  004031B2: E8 29 28 00 00     call        004059E0
  004031B7: 89 75 A0           mov         dword ptr [ebp-60h],esi
  004031BA: 8B 35 20 AE 40 00  mov         esi,dword ptr ds:[0040AE20h]
  004031C0: 83 C4 0C           add         esp,0Ch
  004031C3: 3B F7              cmp         esi,edi
  004031C5: 74 21              je          004031E8
  004031C7: 8D 46 FF           lea         eax,[esi-1]
  004031CA: 8B C8              mov         ecx,eax
  004031CC: 8B D0              mov         edx,eax
  004031CE: C1 F9 05           sar         ecx,5
  004031D1: 83 E2 1F           and         edx,1Fh
  004031D4: 8B 0C 8D 20 AD 40  mov         ecx,dword ptr [ecx*4+0040AD20h]
            00
  004031DB: 80 7C D1 04 00     cmp         byte ptr [ecx+edx*8+4],0
  004031E0: 75 06              jne         004031E8
  004031E2: 4E                 dec         esi
  004031E3: 48                 dec         eax
  004031E4: 3B F7              cmp         esi,edi
  004031E6: 75 E2              jne         004031CA
  004031E8: 8D 44 B6 04        lea         eax,[esi+esi*4+4]
  004031EC: 6A 01              push        1
  004031EE: 66 89 45 D2        mov         word ptr [ebp-2Eh],ax
  004031F2: 0F B7 C0           movzx       eax,ax
  004031F5: 50                 push        eax
  004031F6: E8 DF 07 00 00     call        004039DA
  004031FB: 89 45 D4           mov         dword ptr [ebp-2Ch],eax
  004031FE: 59                 pop         ecx
  004031FF: 89 30              mov         dword ptr [eax],esi
  00403201: 8B 45 D4           mov         eax,dword ptr [ebp-2Ch]
  00403204: 59                 pop         ecx
  00403205: 33 DB              xor         ebx,ebx
  00403207: 3B F7              cmp         esi,edi
  00403209: 8D 48 04           lea         ecx,[eax+4]
  0040320C: 8D 54 30 04        lea         edx,[eax+esi+4]
  00403210: 7E 37              jle         00403249
  00403212: 8B C3              mov         eax,ebx
  00403214: 8B FB              mov         edi,ebx
  00403216: C1 F8 05           sar         eax,5
  00403219: 83 E7 1F           and         edi,1Fh
  0040321C: 8B 04 85 20 AD 40  mov         eax,dword ptr [eax*4+0040AD20h]
            00
  00403223: 8D 3C F8           lea         edi,[eax+edi*8]
  00403226: 8A 47 04           mov         al,byte ptr [edi+4]
  00403229: A8 10              test        al,10h
  0040322B: 75 08              jne         00403235
  0040322D: 88 01              mov         byte ptr [ecx],al
  0040322F: 8B 07              mov         eax,dword ptr [edi]
  00403231: 89 02              mov         dword ptr [edx],eax
  00403233: EB 06              jmp         0040323B
  00403235: 80 21 00           and         byte ptr [ecx],0
  00403238: 83 0A FF           or          dword ptr [edx],0FFFFFFFFh
  0040323B: 43                 inc         ebx
  0040323C: 41                 inc         ecx
  0040323D: 83 C2 04           add         edx,4
  00403240: 3B DE              cmp         ebx,esi
  00403242: 7C CE              jl          00403212
  00403244: 8B 45 D4           mov         eax,dword ptr [ebp-2Ch]
  00403247: 33 FF              xor         edi,edi
  00403249: 80 7D FF 00        cmp         byte ptr [ebp-1],0
  0040324D: 74 2D              je          0040327C
  0040324F: 8D 48 04           lea         ecx,[eax+4]
  00403252: 33 D2              xor         edx,edx
  00403254: 8D 44 30 04        lea         eax,[eax+esi+4]
  00403258: 83 FE 03           cmp         esi,3
  0040325B: 7D 04              jge         00403261
  0040325D: 8B DE              mov         ebx,esi
  0040325F: EB 03              jmp         00403264
  00403261: 6A 03              push        3
  00403263: 5B                 pop         ebx
  00403264: 3B D3              cmp         edx,ebx
  00403266: 7D 0D              jge         00403275
  00403268: 80 21 00           and         byte ptr [ecx],0
  0040326B: 83 08 FF           or          dword ptr [eax],0FFFFFFFFh
  0040326E: 42                 inc         edx
  0040326F: 41                 inc         ecx
  00403270: 83 C0 04           add         eax,4
  00403273: EB E3              jmp         00403258
  00403275: C7 45 F8 08 00 00  mov         dword ptr [ebp-8],8
            00
  0040327C: 8D 45 E4           lea         eax,[ebp-1Ch]
  0040327F: 89 3D 0C A9 40 00  mov         dword ptr ds:[0040A90Ch],edi
  00403285: 50                 push        eax
  00403286: 8D 45 A0           lea         eax,[ebp-60h]
  00403289: 50                 push        eax
  0040328A: 57                 push        edi
  0040328B: FF 75 14           push        dword ptr [ebp+14h]
  0040328E: 89 3D 10 A9 40 00  mov         dword ptr ds:[0040A910h],edi
  00403294: FF 75 F8           push        dword ptr [ebp-8]
  00403297: 6A 01              push        1
  00403299: 57                 push        edi
  0040329A: 57                 push        edi
  0040329B: FF 75 F4           push        dword ptr [ebp-0Ch]
  0040329E: FF 75 0C           push        dword ptr [ebp+0Ch]
  004032A1: FF 15 7C 70 40 00  call        dword ptr ds:[0040707Ch]
  004032A7: 8B F0              mov         esi,eax
  004032A9: FF 15 14 70 40 00  call        dword ptr ds:[00407014h]
  004032AF: FF 75 D4           push        dword ptr [ebp-2Ch]
  004032B2: 8B D8              mov         ebx,eax
  004032B4: E8 B7 FA FF FF     call        00402D70
  004032B9: 3B F7              cmp         esi,edi
  004032BB: 59                 pop         ecx
  004032BC: 75 0C              jne         004032CA
  004032BE: 53                 push        ebx
  004032BF: E8 63 02 00 00     call        00403527
  004032C4: 59                 pop         ecx
  004032C5: 83 C8 FF           or          eax,0FFFFFFFFh
  004032C8: EB 54              jmp         0040331E
  004032CA: 83 7D 08 02        cmp         dword ptr [ebp+8],2
  004032CE: 75 06              jne         004032D6
  004032D0: 57                 push        edi
  004032D1: E8 FB E0 FF FF     call        004013D1
  004032D6: 39 7D 08           cmp         dword ptr [ebp+8],edi
  004032D9: 8B 35 78 70 40 00  mov         esi,dword ptr ds:[00407078h]
  004032DF: 75 1F              jne         00403300
  004032E1: 6A FF              push        0FFFFFFFFh
  004032E3: FF 75 E4           push        dword ptr [ebp-1Ch]
  004032E6: FF 15 74 70 40 00  call        dword ptr ds:[00407074h]
  004032EC: 8D 45 10           lea         eax,[ebp+10h]
  004032EF: 50                 push        eax
  004032F0: FF 75 E4           push        dword ptr [ebp-1Ch]
  004032F3: FF 15 70 70 40 00  call        dword ptr ds:[00407070h]
  004032F9: FF 75 E4           push        dword ptr [ebp-1Ch]
  004032FC: FF D6              call        esi
  004032FE: EB 16              jmp         00403316
  00403300: 83 7D 08 04        cmp         dword ptr [ebp+8],4
  00403304: 75 0A              jne         00403310
  00403306: FF 75 E4           push        dword ptr [ebp-1Ch]
  00403309: FF D6              call        esi
  0040330B: 89 7D 10           mov         dword ptr [ebp+10h],edi
  0040330E: EB 06              jmp         00403316
  00403310: 8B 45 E4           mov         eax,dword ptr [ebp-1Ch]
  00403313: 89 45 10           mov         dword ptr [ebp+10h],eax
  00403316: FF 75 E8           push        dword ptr [ebp-18h]
  00403319: FF D6              call        esi
  0040331B: 8B 45 10           mov         eax,dword ptr [ebp+10h]
  0040331E: 5F                 pop         edi
  0040331F: 5E                 pop         esi
  00403320: 5B                 pop         ebx
  00403321: C9                 leave
  00403322: C3                 ret
  00403323: 55                 push        ebp
  00403324: 8B EC              mov         ebp,esp
  00403326: 53                 push        ebx
  00403327: 8B 5D 08           mov         ebx,dword ptr [ebp+8]
  0040332A: 56                 push        esi
  0040332B: 57                 push        edi
  0040332C: 6A 02              push        2
  0040332E: 5E                 pop         esi
  0040332F: 8B FE              mov         edi,esi
  00403331: 8B 03              mov         eax,dword ptr [ebx]
  00403333: 85 C0              test        eax,eax
  00403335: 74 10              je          00403347
  00403337: 50                 push        eax
  00403338: 83 C3 04           add         ebx,4
  0040333B: E8 F0 FB FF FF     call        00402F30
  00403340: 59                 pop         ecx
  00403341: 8D 7C 07 01        lea         edi,[edi+eax+1]
  00403345: EB EA              jmp         00403331
  00403347: 57                 push        edi
  00403348: E8 D2 FC FF FF     call        0040301F
  0040334D: 59                 pop         ecx
  0040334E: 8B 4D 10           mov         ecx,dword ptr [ebp+10h]
  00403351: 85 C0              test        eax,eax
  00403353: 89 01              mov         dword ptr [ecx],eax
  00403355: 75 0B              jne         00403362
  00403357: 8B 45 14           mov         eax,dword ptr [ebp+14h]
  0040335A: 83 20 00           and         dword ptr [eax],0
  0040335D: E9 E2 00 00 00     jmp         00403444
  00403362: 8B 7D 0C           mov         edi,dword ptr [ebp+0Ch]
  00403365: 85 FF              test        edi,edi
  00403367: 74 16              je          0040337F
  00403369: 8B 07              mov         eax,dword ptr [edi]
  0040336B: 85 C0              test        eax,eax
  0040336D: 74 37              je          004033A6
  0040336F: 50                 push        eax
  00403370: 83 C7 04           add         edi,4
  00403373: E8 B8 FB FF FF     call        00402F30
  00403378: 59                 pop         ecx
  00403379: 8D 74 06 01        lea         esi,[esi+eax+1]
  0040337D: EB EA              jmp         00403369
  0040337F: 8B 45 14           mov         eax,dword ptr [ebp+14h]
  00403382: 8B 5D 14           mov         ebx,dword ptr [ebp+14h]
  00403385: 8B 7D 14           mov         edi,dword ptr [ebp+14h]
  00403388: 83 20 00           and         dword ptr [eax],0
  0040338B: 8B 45 10           mov         eax,dword ptr [ebp+10h]
  0040338E: 8B 30              mov         esi,dword ptr [eax]
  00403390: 8B 45 08           mov         eax,dword ptr [ebp+8]
  00403393: 89 45 10           mov         dword ptr [ebp+10h],eax
  00403396: 8B 00              mov         eax,dword ptr [eax]
  00403398: 85 C0              test        eax,eax
  0040339A: 0F 85 C0 00 00 00  jne         00403460
  004033A0: 46                 inc         esi
  004033A1: E9 D9 00 00 00     jmp         0040347F
  004033A6: A1 00 A9 40 00     mov         eax,dword ptr ds:[0040A900h]
  004033AB: 85 C0              test        eax,eax
  004033AD: 75 12              jne         004033C1
  004033AF: E8 B0 F1 FF FF     call        00402564
  004033B4: 85 C0              test        eax,eax
  004033B6: A3 00 A9 40 00     mov         dword ptr ds:[0040A900h],eax
  004033BB: 0F 84 97 00 00 00  je          00403458
  004033C1: 33 DB              xor         ebx,ebx
  004033C3: 38 18              cmp         byte ptr [eax],bl
  004033C5: 74 23              je          004033EA
  004033C7: 8B F8              mov         edi,eax
  004033C9: 8A 0F              mov         cl,byte ptr [edi]
  004033CB: 80 F9 3D           cmp         cl,3Dh
  004033CE: 74 1A              je          004033EA
  004033D0: 57                 push        edi
  004033D1: E8 5A FB FF FF     call        00402F30
  004033D6: 8D 5C 03 01        lea         ebx,[ebx+eax+1]
  004033DA: A1 00 A9 40 00     mov         eax,dword ptr ds:[0040A900h]
  004033DF: 59                 pop         ecx
  004033E0: 8A 0C 18           mov         cl,byte ptr [eax+ebx]
  004033E3: 8D 3C 18           lea         edi,[eax+ebx]
  004033E6: 84 C9              test        cl,cl
  004033E8: 75 E1              jne         004033CB
  004033EA: 8B FB              mov         edi,ebx
  004033EC: 03 C3              add         eax,ebx
  004033EE: 80 38 3D           cmp         byte ptr [eax],3Dh
  004033F1: 75 29              jne         0040341C
  004033F3: 80 78 01 00        cmp         byte ptr [eax+1],0
  004033F7: 74 23              je          0040341C
  004033F9: 80 78 02 3A        cmp         byte ptr [eax+2],3Ah
  004033FD: 75 1D              jne         0040341C
  004033FF: 80 78 03 3D        cmp         byte ptr [eax+3],3Dh
  00403403: 75 17              jne         0040341C
  00403405: 83 C0 04           add         eax,4
  00403408: 50                 push        eax
  00403409: E8 22 FB FF FF     call        00402F30
  0040340E: 8D 7C 07 05        lea         edi,[edi+eax+5]
  00403412: A1 00 A9 40 00     mov         eax,dword ptr ds:[0040A900h]
  00403417: 59                 pop         ecx
  00403418: 03 C7              add         eax,edi
  0040341A: EB D2              jmp         004033EE
  0040341C: 8B C7              mov         eax,edi
  0040341E: 2B C3              sub         eax,ebx
  00403420: 03 C6              add         eax,esi
  00403422: 50                 push        eax
  00403423: E8 F7 FB FF FF     call        0040301F
  00403428: 59                 pop         ecx
  00403429: 8B 4D 14           mov         ecx,dword ptr [ebp+14h]
  0040342C: 85 C0              test        eax,eax
  0040342E: 89 01              mov         dword ptr [ecx],eax
  00403430: 0F 85 55 FF FF FF  jne         0040338B
  00403436: 8B 75 10           mov         esi,dword ptr [ebp+10h]
  00403439: FF 36              push        dword ptr [esi]
  0040343B: E8 30 F9 FF FF     call        00402D70
  00403440: 83 26 00           and         dword ptr [esi],0
  00403443: 59                 pop         ecx
  00403444: C7 05 0C A9 40 00  mov         dword ptr ds:[0040A90Ch],0Ch
            0C 00 00 00
  0040344E: C7 05 10 A9 40 00  mov         dword ptr ds:[0040A910h],8
            08 00 00 00
  00403458: 83 C8 FF           or          eax,0FFFFFFFFh
  0040345B: E9 C2 00 00 00     jmp         00403522
  00403460: 50                 push        eax
  00403461: 56                 push        esi
  00403462: E8 79 F9 FF FF     call        00402DE0
  00403467: 8B 45 08           mov         eax,dword ptr [ebp+8]
  0040346A: 8B 08              mov         ecx,dword ptr [eax]
  0040346C: 83 C0 04           add         eax,4
  0040346F: 51                 push        ecx
  00403470: 89 45 10           mov         dword ptr [ebp+10h],eax
  00403473: E8 B8 FA FF FF     call        00402F30
  00403478: 83 C4 0C           add         esp,0Ch
  0040347B: 8D 74 06 01        lea         esi,[esi+eax+1]
  0040347F: 8B 45 10           mov         eax,dword ptr [ebp+10h]
  00403482: 8B 00              mov         eax,dword ptr [eax]
  00403484: 85 C0              test        eax,eax
  00403486: 74 23              je          004034AB
  00403488: 50                 push        eax
  00403489: 56                 push        esi
  0040348A: E8 51 F9 FF FF     call        00402DE0
  0040348F: 8B 45 10           mov         eax,dword ptr [ebp+10h]
  00403492: 83 45 10 04        add         dword ptr [ebp+10h],4
  00403496: 8B 00              mov         eax,dword ptr [eax]
  00403498: 50                 push        eax
  00403499: E8 92 FA FF FF     call        00402F30
  0040349E: 83 C4 0C           add         esp,0Ch
  004034A1: 03 F0              add         esi,eax
  004034A3: C6 06 20           mov         byte ptr [esi],20h
  004034A6: E9 F5 FE FF FF     jmp         004033A0
  004034AB: 8B 45 14           mov         eax,dword ptr [ebp+14h]
  004034AE: 80 66 FF 00        and         byte ptr [esi-1],0
  004034B2: 80 26 00           and         byte ptr [esi],0
  004034B5: 83 7D 0C 00        cmp         dword ptr [ebp+0Ch],0
  004034B9: 8B 30              mov         esi,dword ptr [eax]
  004034BB: 74 3E              je          004034FB
  004034BD: 8B C7              mov         eax,edi
  004034BF: 2B C3              sub         eax,ebx
  004034C1: 50                 push        eax
  004034C2: A1 00 A9 40 00     mov         eax,dword ptr ds:[0040A900h]
  004034C7: 03 C3              add         eax,ebx
  004034C9: 50                 push        eax
  004034CA: 56                 push        esi
  004034CB: E8 00 0A 00 00     call        00403ED0
  004034D0: 2B FB              sub         edi,ebx
  004034D2: 83 C4 0C           add         esp,0Ch
  004034D5: 03 F7              add         esi,edi
  004034D7: 8B 7D 0C           mov         edi,dword ptr [ebp+0Ch]
  004034DA: 8B 07              mov         eax,dword ptr [edi]
  004034DC: 85 C0              test        eax,eax
  004034DE: 74 1B              je          004034FB
  004034E0: 50                 push        eax
  004034E1: 56                 push        esi
  004034E2: E8 F9 F8 FF FF     call        00402DE0
  004034E7: 8B 07              mov         eax,dword ptr [edi]
  004034E9: 83 C7 04           add         edi,4
  004034EC: 50                 push        eax
  004034ED: E8 3E FA FF FF     call        00402F30
  004034F2: 83 C4 0C           add         esp,0Ch
  004034F5: 8D 74 06 01        lea         esi,[esi+eax+1]
  004034F9: EB DF              jmp         004034DA
  004034FB: 85 F6              test        esi,esi
  004034FD: 74 0E              je          0040350D
  004034FF: 8B 45 14           mov         eax,dword ptr [ebp+14h]
  00403502: 3B 30              cmp         esi,dword ptr [eax]
  00403504: 75 04              jne         0040350A
  00403506: 80 26 00           and         byte ptr [esi],0
  00403509: 46                 inc         esi
  0040350A: 80 26 00           and         byte ptr [esi],0
  0040350D: FF 35 00 A9 40 00  push        dword ptr ds:[0040A900h]
  00403513: E8 58 F8 FF FF     call        00402D70
  00403518: 83 25 00 A9 40 00  and         dword ptr ds:[0040A900h],0
            00
  0040351F: 59                 pop         ecx
  00403520: 33 C0              xor         eax,eax
  00403522: 5F                 pop         edi
  00403523: 5E                 pop         esi
  00403524: 5B                 pop         ebx
  00403525: 5D                 pop         ebp
  00403526: C3                 ret
  00403527: 8B 4C 24 04        mov         ecx,dword ptr [esp+4]
  0040352B: 33 D2              xor         edx,edx
  0040352D: 89 0D 10 A9 40 00  mov         dword ptr ds:[0040A910h],ecx
  00403533: B8 28 84 40 00     mov         eax,408428h
  00403538: 3B 08              cmp         ecx,dword ptr [eax]
  0040353A: 74 20              je          0040355C
  0040353C: 83 C0 08           add         eax,8
  0040353F: 42                 inc         edx
  00403540: 3D 90 85 40 00     cmp         eax,408590h
  00403545: 72 F1              jb          00403538
  00403547: 83 F9 13           cmp         ecx,13h
  0040354A: 72 1D              jb          00403569
  0040354C: 83 F9 24           cmp         ecx,24h
  0040354F: 77 18              ja          00403569
  00403551: C7 05 0C A9 40 00  mov         dword ptr ds:[0040A90Ch],0Dh
            0D 00 00 00
  0040355B: C3                 ret
  0040355C: 8B 04 D5 2C 84 40  mov         eax,dword ptr [edx*8+0040842Ch]
            00
  00403563: A3 0C A9 40 00     mov         dword ptr ds:[0040A90Ch],eax
  00403568: C3                 ret
  00403569: 81 F9 BC 00 00 00  cmp         ecx,0BCh
  0040356F: 72 12              jb          00403583
  00403571: 81 F9 CA 00 00 00  cmp         ecx,0CAh
  00403577: C7 05 0C A9 40 00  mov         dword ptr ds:[0040A90Ch],8
            08 00 00 00
  00403581: 76 0A              jbe         0040358D
  00403583: C7 05 0C A9 40 00  mov         dword ptr ds:[0040A90Ch],16h
            16 00 00 00
  0040358D: C3                 ret
  0040358E: 55                 push        ebp
  0040358F: 8B EC              mov         ebp,esp
  00403591: 83 7D 10 00        cmp         dword ptr [ebp+10h],0
  00403595: 75 04              jne         0040359B
  00403597: 33 C0              xor         eax,eax
  00403599: 5D                 pop         ebp
  0040359A: C3                 ret
  0040359B: FF 35 D8 AA 40 00  push        dword ptr ds:[0040AAD8h]
  004035A1: FF 75 10           push        dword ptr [ebp+10h]
  004035A4: FF 75 0C           push        dword ptr [ebp+0Ch]
  004035A7: FF 75 10           push        dword ptr [ebp+10h]
  004035AA: FF 75 08           push        dword ptr [ebp+8]
  004035AD: 6A 01              push        1
  004035AF: FF 35 04 AD 40 00  push        dword ptr ds:[0040AD04h]
  004035B5: E8 7E 24 00 00     call        00405A38
  004035BA: 83 C4 1C           add         esp,1Ch
  004035BD: 85 C0              test        eax,eax
  004035BF: 75 07              jne         004035C8
  004035C1: B8 FF FF FF 7F     mov         eax,7FFFFFFFh
  004035C6: 5D                 pop         ebp
  004035C7: C3                 ret
  004035C8: 83 C0 FE           add         eax,0FFFFFFFEh
  004035CB: 5D                 pop         ebp
  004035CC: C3                 ret
  004035CD: 51                 push        ecx
  004035CE: 53                 push        ebx
  004035CF: 55                 push        ebp
  004035D0: 56                 push        esi
  004035D1: 8B 35 3C A9 40 00  mov         esi,dword ptr ds:[0040A93Ch]
  004035D7: 57                 push        edi
  004035D8: 33 FF              xor         edi,edi
  004035DA: 8B 06              mov         eax,dword ptr [esi]
  004035DC: 3B C7              cmp         eax,edi
  004035DE: 74 4E              je          0040362E
  004035E0: 8B 1D 2C 70 40 00  mov         ebx,dword ptr ds:[0040702Ch]
  004035E6: 57                 push        edi
  004035E7: 57                 push        edi
  004035E8: 57                 push        edi
  004035E9: 57                 push        edi
  004035EA: 6A FF              push        0FFFFFFFFh
  004035EC: 50                 push        eax
  004035ED: 57                 push        edi
  004035EE: 6A 01              push        1
  004035F0: FF D3              call        ebx
  004035F2: 8B E8              mov         ebp,eax
  004035F4: 3B EF              cmp         ebp,edi
  004035F6: 74 3E              je          00403636
  004035F8: 55                 push        ebp
  004035F9: E8 21 FA FF FF     call        0040301F
  004035FE: 3B C7              cmp         eax,edi
  00403600: 59                 pop         ecx
  00403601: 89 44 24 10        mov         dword ptr [esp+10h],eax
  00403605: 74 2F              je          00403636
  00403607: 57                 push        edi
  00403608: 57                 push        edi
  00403609: 55                 push        ebp
  0040360A: 50                 push        eax
  0040360B: 6A FF              push        0FFFFFFFFh
  0040360D: FF 36              push        dword ptr [esi]
  0040360F: 57                 push        edi
  00403610: 6A 01              push        1
  00403612: FF D3              call        ebx
  00403614: 85 C0              test        eax,eax
  00403616: 74 1E              je          00403636
  00403618: 57                 push        edi
  00403619: FF 74 24 14        push        dword ptr [esp+14h]
  0040361D: E8 BE 26 00 00     call        00405CE0
  00403622: 8B 46 04           mov         eax,dword ptr [esi+4]
  00403625: 83 C6 04           add         esi,4
  00403628: 59                 pop         ecx
  00403629: 3B C7              cmp         eax,edi
  0040362B: 59                 pop         ecx
  0040362C: 75 B8              jne         004035E6
  0040362E: 33 C0              xor         eax,eax
  00403630: 5F                 pop         edi
  00403631: 5E                 pop         esi
  00403632: 5D                 pop         ebp
  00403633: 5B                 pop         ebx
  00403634: 59                 pop         ecx
  00403635: C3                 ret
  00403636: 83 C8 FF           or          eax,0FFFFFFFFh
  00403639: EB F5              jmp         00403630
  0040363B: 8B 44 24 04        mov         eax,dword ptr [esp+4]
  0040363F: 3B 05 20 AE 40 00  cmp         eax,dword ptr ds:[0040AE20h]
  00403645: 72 03              jb          0040364A
  00403647: 33 C0              xor         eax,eax
  00403649: C3                 ret
  0040364A: 8B C8              mov         ecx,eax
  0040364C: 83 E0 1F           and         eax,1Fh
  0040364F: C1 F9 05           sar         ecx,5
  00403652: 8B 0C 8D 20 AD 40  mov         ecx,dword ptr [ecx*4+0040AD20h]
            00
  00403659: 8A 44 C1 04        mov         al,byte ptr [ecx+eax*8+4]
  0040365D: 83 E0 40           and         eax,40h
  00403660: C3                 ret
  00403661: 56                 push        esi
  00403662: 8B 74 24 08        mov         esi,dword ptr [esp+8]
  00403666: 85 F6              test        esi,esi
  00403668: 75 09              jne         00403673
  0040366A: 56                 push        esi
  0040366B: E8 91 00 00 00     call        00403701
  00403670: 59                 pop         ecx
  00403671: 5E                 pop         esi
  00403672: C3                 ret
  00403673: 56                 push        esi
  00403674: E8 23 00 00 00     call        0040369C
  00403679: 85 C0              test        eax,eax
  0040367B: 59                 pop         ecx
  0040367C: 74 05              je          00403683
  0040367E: 83 C8 FF           or          eax,0FFFFFFFFh
  00403681: 5E                 pop         esi
  00403682: C3                 ret
  00403683: F6 46 0D 40        test        byte ptr [esi+0Dh],40h
  00403687: 74 0F              je          00403698
  00403689: FF 76 10           push        dword ptr [esi+10h]
  0040368C: E8 95 28 00 00     call        00405F26
  00403691: F7 D8              neg         eax
  00403693: 59                 pop         ecx
  00403694: 5E                 pop         esi
  00403695: 1B C0              sbb         eax,eax
  00403697: C3                 ret
  00403698: 33 C0              xor         eax,eax
  0040369A: 5E                 pop         esi
  0040369B: C3                 ret
  0040369C: 53                 push        ebx
  0040369D: 56                 push        esi
  0040369E: 8B 74 24 0C        mov         esi,dword ptr [esp+0Ch]
  004036A2: 33 DB              xor         ebx,ebx
  004036A4: 57                 push        edi
  004036A5: 8B 46 0C           mov         eax,dword ptr [esi+0Ch]
  004036A8: 8B C8              mov         ecx,eax
  004036AA: 83 E1 03           and         ecx,3
  004036AD: 80 F9 02           cmp         cl,2
  004036B0: 75 37              jne         004036E9
  004036B2: 66 A9 08 01        test        ax,108h
  004036B6: 74 31              je          004036E9
  004036B8: 8B 46 08           mov         eax,dword ptr [esi+8]
  004036BB: 8B 3E              mov         edi,dword ptr [esi]
  004036BD: 2B F8              sub         edi,eax
  004036BF: 85 FF              test        edi,edi
  004036C1: 7E 26              jle         004036E9
  004036C3: 57                 push        edi
  004036C4: 50                 push        eax
  004036C5: FF 76 10           push        dword ptr [esi+10h]
  004036C8: E8 B0 28 00 00     call        00405F7D
  004036CD: 83 C4 0C           add         esp,0Ch
  004036D0: 3B C7              cmp         eax,edi
  004036D2: 75 0E              jne         004036E2
  004036D4: 8B 46 0C           mov         eax,dword ptr [esi+0Ch]
  004036D7: A8 80              test        al,80h
  004036D9: 74 0E              je          004036E9
  004036DB: 24 FD              and         al,0FDh
  004036DD: 89 46 0C           mov         dword ptr [esi+0Ch],eax
  004036E0: EB 07              jmp         004036E9
  004036E2: 83 4E 0C 20        or          dword ptr [esi+0Ch],20h
  004036E6: 83 CB FF           or          ebx,0FFFFFFFFh
  004036E9: 8B 46 08           mov         eax,dword ptr [esi+8]
  004036EC: 83 66 04 00        and         dword ptr [esi+4],0
  004036F0: 89 06              mov         dword ptr [esi],eax
  004036F2: 5F                 pop         edi
  004036F3: 8B C3              mov         eax,ebx
  004036F5: 5E                 pop         esi
  004036F6: 5B                 pop         ebx
  004036F7: C3                 ret
  004036F8: 6A 01              push        1
  004036FA: E8 02 00 00 00     call        00403701
  004036FF: 59                 pop         ecx
  00403700: C3                 ret
  00403701: 53                 push        ebx
  00403702: 56                 push        esi
  00403703: 57                 push        edi
  00403704: 33 F6              xor         esi,esi
  00403706: 33 DB              xor         ebx,ebx
  00403708: 33 FF              xor         edi,edi
  0040370A: 39 35 40 BE 40 00  cmp         dword ptr ds:[0040BE40h],esi
  00403710: 7E 4D              jle         0040375F
  00403712: A1 24 AE 40 00     mov         eax,dword ptr ds:[0040AE24h]
  00403717: 8B 04 B0           mov         eax,dword ptr [eax+esi*4]
  0040371A: 85 C0              test        eax,eax
  0040371C: 74 38              je          00403756
  0040371E: 8B 48 0C           mov         ecx,dword ptr [eax+0Ch]
  00403721: F6 C1 83           test        cl,83h
  00403724: 74 30              je          00403756
  00403726: 83 7C 24 10 01     cmp         dword ptr [esp+10h],1
  0040372B: 75 0F              jne         0040373C
  0040372D: 50                 push        eax
  0040372E: E8 2E FF FF FF     call        00403661
  00403733: 83 F8 FF           cmp         eax,0FFFFFFFFh
  00403736: 59                 pop         ecx
  00403737: 74 1D              je          00403756
  00403739: 43                 inc         ebx
  0040373A: EB 1A              jmp         00403756
  0040373C: 83 7C 24 10 00     cmp         dword ptr [esp+10h],0
  00403741: 75 13              jne         00403756
  00403743: F6 C1 02           test        cl,2
  00403746: 74 0E              je          00403756
  00403748: 50                 push        eax
  00403749: E8 13 FF FF FF     call        00403661
  0040374E: 83 F8 FF           cmp         eax,0FFFFFFFFh
  00403751: 59                 pop         ecx
  00403752: 75 02              jne         00403756
  00403754: 0B F8              or          edi,eax
  00403756: 46                 inc         esi
  00403757: 3B 35 40 BE 40 00  cmp         esi,dword ptr ds:[0040BE40h]
  0040375D: 7C B3              jl          00403712
  0040375F: 83 7C 24 10 01     cmp         dword ptr [esp+10h],1
  00403764: 8B C3              mov         eax,ebx
  00403766: 74 02              je          0040376A
  00403768: 8B C7              mov         eax,edi
  0040376A: 5F                 pop         edi
  0040376B: 5E                 pop         esi
  0040376C: 5B                 pop         ebx
  0040376D: C3                 ret
  0040376E: 55                 push        ebp
  0040376F: 8B EC              mov         ebp,esp
  00403771: 8B 45 08           mov         eax,dword ptr [ebp+8]
  00403774: 85 C0              test        eax,eax
  00403776: 75 02              jne         0040377A
  00403778: 5D                 pop         ebp
  00403779: C3                 ret
  0040377A: 83 3D 9C AA 40 00  cmp         dword ptr ds:[0040AA9Ch],0
            00
  00403781: 75 12              jne         00403795
  00403783: 66 8B 4D 0C        mov         cx,word ptr [ebp+0Ch]
  00403787: 66 81 F9 FF 00     cmp         cx,0FFh
  0040378C: 77 39              ja          004037C7
  0040378E: 6A 01              push        1
  00403790: 88 08              mov         byte ptr [eax],cl
  00403792: 58                 pop         eax
  00403793: 5D                 pop         ebp
  00403794: C3                 ret
  00403795: 8D 4D 08           lea         ecx,[ebp+8]
  00403798: 83 65 08 00        and         dword ptr [ebp+8],0
  0040379C: 51                 push        ecx
  0040379D: 6A 00              push        0
  0040379F: FF 35 F0 A8 40 00  push        dword ptr ds:[0040A8F0h]
  004037A5: 50                 push        eax
  004037A6: 8D 45 0C           lea         eax,[ebp+0Ch]
  004037A9: 6A 01              push        1
  004037AB: 50                 push        eax
  004037AC: 68 20 02 00 00     push        220h
  004037B1: FF 35 AC AA 40 00  push        dword ptr ds:[0040AAACh]
  004037B7: FF 15 2C 70 40 00  call        dword ptr ds:[0040702Ch]
  004037BD: 85 C0              test        eax,eax
  004037BF: 74 06              je          004037C7
  004037C1: 83 7D 08 00        cmp         dword ptr [ebp+8],0
  004037C5: 74 0D              je          004037D4
  004037C7: C7 05 0C A9 40 00  mov         dword ptr ds:[0040A90Ch],2Ah
            2A 00 00 00
  004037D1: 83 C8 FF           or          eax,0FFFFFFFFh
  004037D4: 5D                 pop         ebp
  004037D5: C3                 ret
  004037D6: CC                 int         3
  004037D7: CC                 int         3
  004037D8: CC                 int         3
  004037D9: CC                 int         3
  004037DA: CC                 int         3
  004037DB: CC                 int         3
  004037DC: CC                 int         3
  004037DD: CC                 int         3
  004037DE: CC                 int         3
  004037DF: CC                 int         3
  004037E0: 53                 push        ebx
  004037E1: 56                 push        esi
  004037E2: 8B 44 24 18        mov         eax,dword ptr [esp+18h]
  004037E6: 0B C0              or          eax,eax
  004037E8: 75 18              jne         00403802
  004037EA: 8B 4C 24 14        mov         ecx,dword ptr [esp+14h]
  004037EE: 8B 44 24 10        mov         eax,dword ptr [esp+10h]
  004037F2: 33 D2              xor         edx,edx
  004037F4: F7 F1              div         eax,ecx
  004037F6: 8B D8              mov         ebx,eax
  004037F8: 8B 44 24 0C        mov         eax,dword ptr [esp+0Ch]
  004037FC: F7 F1              div         eax,ecx
  004037FE: 8B D3              mov         edx,ebx
  00403800: EB 41              jmp         00403843
  00403802: 8B C8              mov         ecx,eax
  00403804: 8B 5C 24 14        mov         ebx,dword ptr [esp+14h]
  00403808: 8B 54 24 10        mov         edx,dword ptr [esp+10h]
  0040380C: 8B 44 24 0C        mov         eax,dword ptr [esp+0Ch]
  00403810: D1 E9              shr         ecx,1
  00403812: D1 DB              rcr         ebx,1
  00403814: D1 EA              shr         edx,1
  00403816: D1 D8              rcr         eax,1
  00403818: 0B C9              or          ecx,ecx
  0040381A: 75 F4              jne         00403810
  0040381C: F7 F3              div         eax,ebx
  0040381E: 8B F0              mov         esi,eax
  00403820: F7 64 24 18        mul         eax,dword ptr [esp+18h]
  00403824: 8B C8              mov         ecx,eax
  00403826: 8B 44 24 14        mov         eax,dword ptr [esp+14h]
  0040382A: F7 E6              mul         eax,esi
  0040382C: 03 D1              add         edx,ecx
  0040382E: 72 0E              jb          0040383E
  00403830: 3B 54 24 10        cmp         edx,dword ptr [esp+10h]
  00403834: 77 08              ja          0040383E
  00403836: 72 07              jb          0040383F
  00403838: 3B 44 24 0C        cmp         eax,dword ptr [esp+0Ch]
  0040383C: 76 01              jbe         0040383F
  0040383E: 4E                 dec         esi
  0040383F: 33 D2              xor         edx,edx
  00403841: 8B C6              mov         eax,esi
  00403843: 5E                 pop         esi
  00403844: 5B                 pop         ebx
  00403845: C2 10 00           ret         10h
  00403848: CC                 int         3
  00403849: CC                 int         3
  0040384A: CC                 int         3
  0040384B: CC                 int         3
  0040384C: CC                 int         3
  0040384D: CC                 int         3
  0040384E: CC                 int         3
  0040384F: CC                 int         3
  00403850: 53                 push        ebx
  00403851: 8B 44 24 14        mov         eax,dword ptr [esp+14h]
  00403855: 0B C0              or          eax,eax
  00403857: 75 18              jne         00403871
  00403859: 8B 4C 24 10        mov         ecx,dword ptr [esp+10h]
  0040385D: 8B 44 24 0C        mov         eax,dword ptr [esp+0Ch]
  00403861: 33 D2              xor         edx,edx
  00403863: F7 F1              div         eax,ecx
  00403865: 8B 44 24 08        mov         eax,dword ptr [esp+8]
  00403869: F7 F1              div         eax,ecx
  0040386B: 8B C2              mov         eax,edx
  0040386D: 33 D2              xor         edx,edx
  0040386F: EB 50              jmp         004038C1
  00403871: 8B C8              mov         ecx,eax
  00403873: 8B 5C 24 10        mov         ebx,dword ptr [esp+10h]
  00403877: 8B 54 24 0C        mov         edx,dword ptr [esp+0Ch]
  0040387B: 8B 44 24 08        mov         eax,dword ptr [esp+8]
  0040387F: D1 E9              shr         ecx,1
  00403881: D1 DB              rcr         ebx,1
  00403883: D1 EA              shr         edx,1
  00403885: D1 D8              rcr         eax,1
  00403887: 0B C9              or          ecx,ecx
  00403889: 75 F4              jne         0040387F
  0040388B: F7 F3              div         eax,ebx
  0040388D: 8B C8              mov         ecx,eax
  0040388F: F7 64 24 14        mul         eax,dword ptr [esp+14h]
  00403893: 91                 xchg        eax,ecx
  00403894: F7 64 24 10        mul         eax,dword ptr [esp+10h]
  00403898: 03 D1              add         edx,ecx
  0040389A: 72 0E              jb          004038AA
  0040389C: 3B 54 24 0C        cmp         edx,dword ptr [esp+0Ch]
  004038A0: 77 08              ja          004038AA
  004038A2: 72 0E              jb          004038B2
  004038A4: 3B 44 24 08        cmp         eax,dword ptr [esp+8]
  004038A8: 76 08              jbe         004038B2
  004038AA: 2B 44 24 10        sub         eax,dword ptr [esp+10h]
  004038AE: 1B 54 24 14        sbb         edx,dword ptr [esp+14h]
  004038B2: 2B 44 24 08        sub         eax,dword ptr [esp+8]
  004038B6: 1B 54 24 0C        sbb         edx,dword ptr [esp+0Ch]
  004038BA: F7 DA              neg         edx
  004038BC: F7 D8              neg         eax
  004038BE: 83 DA 00           sbb         edx,0
  004038C1: 5B                 pop         ebx
  004038C2: C2 10 00           ret         10h
  004038C5: 55                 push        ebp
  004038C6: 8B EC              mov         ebp,esp
  004038C8: 53                 push        ebx
  004038C9: 56                 push        esi
  004038CA: 8B 75 0C           mov         esi,dword ptr [ebp+0Ch]
  004038CD: 8B 46 0C           mov         eax,dword ptr [esi+0Ch]
  004038D0: 8B 5E 10           mov         ebx,dword ptr [esi+10h]
  004038D3: A8 82              test        al,82h
  004038D5: 0F 84 F3 00 00 00  je          004039CE
  004038DB: A8 40              test        al,40h
  004038DD: 0F 85 EB 00 00 00  jne         004039CE
  004038E3: A8 01              test        al,1
  004038E5: 74 16              je          004038FD
  004038E7: 83 66 04 00        and         dword ptr [esi+4],0
  004038EB: A8 10              test        al,10h
  004038ED: 0F 84 DB 00 00 00  je          004039CE
  004038F3: 8B 4E 08           mov         ecx,dword ptr [esi+8]
  004038F6: 24 FE              and         al,0FEh
  004038F8: 89 0E              mov         dword ptr [esi],ecx
  004038FA: 89 46 0C           mov         dword ptr [esi+0Ch],eax
  004038FD: 8B 46 0C           mov         eax,dword ptr [esi+0Ch]
  00403900: 83 66 04 00        and         dword ptr [esi+4],0
  00403904: 83 65 0C 00        and         dword ptr [ebp+0Ch],0
  00403908: 24 EF              and         al,0EFh
  0040390A: 0C 02              or          al,2
  0040390C: 66 A9 0C 01        test        ax,10Ch
  00403910: 89 46 0C           mov         dword ptr [esi+0Ch],eax
  00403913: 75 22              jne         00403937
  00403915: 81 FE 80 80 40 00  cmp         esi,408080h
  0040391B: 74 08              je          00403925
  0040391D: 81 FE A0 80 40 00  cmp         esi,4080A0h
  00403923: 75 0B              jne         00403930
  00403925: 53                 push        ebx
  00403926: E8 10 FD FF FF     call        0040363B
  0040392B: 85 C0              test        eax,eax
  0040392D: 59                 pop         ecx
  0040392E: 75 07              jne         00403937
  00403930: 56                 push        esi
  00403931: E8 97 28 00 00     call        004061CD
  00403936: 59                 pop         ecx
  00403937: 66 F7 46 0C 08 01  test        word ptr [esi+0Ch],108h
  0040393D: 57                 push        edi
  0040393E: 74 64              je          004039A4
  00403940: 8B 46 08           mov         eax,dword ptr [esi+8]
  00403943: 8B 3E              mov         edi,dword ptr [esi]
  00403945: 2B F8              sub         edi,eax
  00403947: 8D 48 01           lea         ecx,[eax+1]
  0040394A: 89 0E              mov         dword ptr [esi],ecx
  0040394C: 8B 4E 18           mov         ecx,dword ptr [esi+18h]
  0040394F: 49                 dec         ecx
  00403950: 85 FF              test        edi,edi
  00403952: 89 4E 04           mov         dword ptr [esi+4],ecx
  00403955: 7E 10              jle         00403967
  00403957: 57                 push        edi
  00403958: 50                 push        eax
  00403959: 53                 push        ebx
  0040395A: E8 1E 26 00 00     call        00405F7D
  0040395F: 83 C4 0C           add         esp,0Ch
  00403962: 89 45 0C           mov         dword ptr [ebp+0Ch],eax
  00403965: EB 33              jmp         0040399A
  00403967: 83 FB FF           cmp         ebx,0FFFFFFFFh
  0040396A: 74 16              je          00403982
  0040396C: 8B C3              mov         eax,ebx
  0040396E: 8B CB              mov         ecx,ebx
  00403970: C1 F8 05           sar         eax,5
  00403973: 83 E1 1F           and         ecx,1Fh
  00403976: 8B 04 85 20 AD 40  mov         eax,dword ptr [eax*4+0040AD20h]
            00
  0040397D: 8D 04 C8           lea         eax,[eax+ecx*8]
  00403980: EB 05              jmp         00403987
  00403982: B8 68 83 40 00     mov         eax,408368h
  00403987: F6 40 04 20        test        byte ptr [eax+4],20h
  0040398B: 74 0D              je          0040399A
  0040398D: 6A 02              push        2
  0040398F: 6A 00              push        0
  00403991: 53                 push        ebx
  00403992: E8 9C 27 00 00     call        00406133
  00403997: 83 C4 0C           add         esp,0Ch
  0040399A: 8B 46 08           mov         eax,dword ptr [esi+8]
  0040399D: 8A 4D 08           mov         cl,byte ptr [ebp+8]
  004039A0: 88 08              mov         byte ptr [eax],cl
  004039A2: EB 14              jmp         004039B8
  004039A4: 6A 01              push        1
  004039A6: 8D 45 08           lea         eax,[ebp+8]
  004039A9: 5F                 pop         edi
  004039AA: 57                 push        edi
  004039AB: 50                 push        eax
  004039AC: 53                 push        ebx
  004039AD: E8 CB 25 00 00     call        00405F7D
  004039B2: 83 C4 0C           add         esp,0Ch
  004039B5: 89 45 0C           mov         dword ptr [ebp+0Ch],eax
  004039B8: 39 7D 0C           cmp         dword ptr [ebp+0Ch],edi
  004039BB: 5F                 pop         edi
  004039BC: 74 06              je          004039C4
  004039BE: 83 4E 0C 20        or          dword ptr [esi+0Ch],20h
  004039C2: EB 0F              jmp         004039D3
  004039C4: 8B 45 08           mov         eax,dword ptr [ebp+8]
  004039C7: 25 FF 00 00 00     and         eax,0FFh
  004039CC: EB 08              jmp         004039D6
  004039CE: 0C 20              or          al,20h
  004039D0: 89 46 0C           mov         dword ptr [esi+0Ch],eax
  004039D3: 83 C8 FF           or          eax,0FFFFFFFFh
  004039D6: 5E                 pop         esi
  004039D7: 5B                 pop         ebx
  004039D8: 5D                 pop         ebp
  004039D9: C3                 ret
  004039DA: 55                 push        ebp
  004039DB: 8B EC              mov         ebp,esp
  004039DD: 56                 push        esi
  004039DE: 8B 75 08           mov         esi,dword ptr [ebp+8]
  004039E1: 0F AF 75 0C        imul        esi,dword ptr [ebp+0Ch]
  004039E5: 83 FE E0           cmp         esi,0FFFFFFE0h
  004039E8: 57                 push        edi
  004039E9: 89 75 08           mov         dword ptr [ebp+8],esi
  004039EC: 77 0D              ja          004039FB
  004039EE: 85 F6              test        esi,esi
  004039F0: 75 03              jne         004039F5
  004039F2: 6A 01              push        1
  004039F4: 5E                 pop         esi
  004039F5: 83 C6 0F           add         esi,0Fh
  004039F8: 83 E6 F0           and         esi,0FFFFFFF0h
  004039FB: 33 FF              xor         edi,edi
  004039FD: 83 FE E0           cmp         esi,0FFFFFFE0h
  00403A00: 77 58              ja          00403A5A
  00403A02: A1 0C AD 40 00     mov         eax,dword ptr ds:[0040AD0Ch]
  00403A07: 83 F8 03           cmp         eax,3
  00403A0A: 75 1A              jne         00403A26
  00403A0C: 8B 45 08           mov         eax,dword ptr [ebp+8]
  00403A0F: 3B 05 D4 AA 40 00  cmp         eax,dword ptr ds:[0040AAD4h]
  00403A15: 77 2E              ja          00403A45
  00403A17: 50                 push        eax
  00403A18: E8 6E 0F 00 00     call        0040498B
  00403A1D: 8B F8              mov         edi,eax
  00403A1F: 59                 pop         ecx
  00403A20: 85 FF              test        edi,edi
  00403A22: 75 4C              jne         00403A70
  00403A24: EB 1F              jmp         00403A45
  00403A26: 83 F8 02           cmp         eax,2
  00403A29: 75 1A              jne         00403A45
  00403A2B: 3B 35 E4 A8 40 00  cmp         esi,dword ptr ds:[0040A8E4h]
  00403A31: 77 12              ja          00403A45
  00403A33: 8B C6              mov         eax,esi
  00403A35: C1 E8 04           shr         eax,4
  00403A38: 50                 push        eax
  00403A39: E8 F0 19 00 00     call        0040542E
  00403A3E: 8B F8              mov         edi,eax
  00403A40: 59                 pop         ecx
  00403A41: 85 FF              test        edi,edi
  00403A43: 75 3F              jne         00403A84
  00403A45: 56                 push        esi
  00403A46: 6A 08              push        8
  00403A48: FF 35 08 AD 40 00  push        dword ptr ds:[0040AD08h]
  00403A4E: FF 15 6C 70 40 00  call        dword ptr ds:[0040706Ch]
  00403A54: 8B F8              mov         edi,eax
  00403A56: 85 FF              test        edi,edi
  00403A58: 75 24              jne         00403A7E
  00403A5A: 83 3D 88 AA 40 00  cmp         dword ptr ds:[0040AA88h],0
            00
  00403A61: 74 1B              je          00403A7E
  00403A63: 56                 push        esi
  00403A64: E8 4E 1F 00 00     call        004059B7
  00403A69: 85 C0              test        eax,eax
  00403A6B: 59                 pop         ecx
  00403A6C: 74 19              je          00403A87
  00403A6E: EB 8B              jmp         004039FB
  00403A70: FF 75 08           push        dword ptr [ebp+8]
  00403A73: 6A 00              push        0
  00403A75: 57                 push        edi
  00403A76: E8 65 1F 00 00     call        004059E0
  00403A7B: 83 C4 0C           add         esp,0Ch
  00403A7E: 8B C7              mov         eax,edi
  00403A80: 5F                 pop         edi
  00403A81: 5E                 pop         esi
  00403A82: 5D                 pop         ebp
  00403A83: C3                 ret
  00403A84: 56                 push        esi
  00403A85: EB EC              jmp         00403A73
  00403A87: 33 C0              xor         eax,eax
  00403A89: EB F5              jmp         00403A80
  00403A8B: 56                 push        esi
  00403A8C: 57                 push        edi
  00403A8D: 6A 03              push        3
  00403A8F: 33 FF              xor         edi,edi
  00403A91: 5E                 pop         esi
  00403A92: 39 35 40 BE 40 00  cmp         dword ptr ds:[0040BE40h],esi
  00403A98: 7E 44              jle         00403ADE
  00403A9A: A1 24 AE 40 00     mov         eax,dword ptr ds:[0040AE24h]
  00403A9F: 8B 04 B0           mov         eax,dword ptr [eax+esi*4]
  00403AA2: 85 C0              test        eax,eax
  00403AA4: 74 2F              je          00403AD5
  00403AA6: F6 40 0C 83        test        byte ptr [eax+0Ch],83h
  00403AAA: 74 0D              je          00403AB9
  00403AAC: 50                 push        eax
  00403AAD: E8 5F 27 00 00     call        00406211
  00403AB2: 83 F8 FF           cmp         eax,0FFFFFFFFh
  00403AB5: 59                 pop         ecx
  00403AB6: 74 01              je          00403AB9
  00403AB8: 47                 inc         edi
  00403AB9: 83 FE 14           cmp         esi,14h
  00403ABC: 7C 17              jl          00403AD5
  00403ABE: A1 24 AE 40 00     mov         eax,dword ptr ds:[0040AE24h]
  00403AC3: FF 34 B0           push        dword ptr [eax+esi*4]
  00403AC6: E8 A5 F2 FF FF     call        00402D70
  00403ACB: A1 24 AE 40 00     mov         eax,dword ptr ds:[0040AE24h]
  00403AD0: 59                 pop         ecx
  00403AD1: 83 24 B0 00        and         dword ptr [eax+esi*4],0
  00403AD5: 46                 inc         esi
  00403AD6: 3B 35 40 BE 40 00  cmp         esi,dword ptr ds:[0040BE40h]
  00403ADC: 7C BC              jl          00403A9A
  00403ADE: 8B C7              mov         eax,edi
  00403AE0: 5F                 pop         edi
  00403AE1: 5E                 pop         esi
  00403AE2: C3                 ret
  00403AE3: 55                 push        ebp
  00403AE4: 8B EC              mov         ebp,esp
  00403AE6: 83 EC 18           sub         esp,18h
  00403AE9: 53                 push        ebx
  00403AEA: 56                 push        esi
  00403AEB: 57                 push        edi
  00403AEC: FF 75 08           push        dword ptr [ebp+8]
  00403AEF: E8 88 01 00 00     call        00403C7C
  00403AF4: 8B F0              mov         esi,eax
  00403AF6: 59                 pop         ecx
  00403AF7: 3B 35 D8 AA 40 00  cmp         esi,dword ptr ds:[0040AAD8h]
  00403AFD: 89 75 08           mov         dword ptr [ebp+8],esi
  00403B00: 0F 84 6A 01 00 00  je          00403C70
  00403B06: 33 DB              xor         ebx,ebx
  00403B08: 3B F3              cmp         esi,ebx
  00403B0A: 0F 84 56 01 00 00  je          00403C66
  00403B10: 33 D2              xor         edx,edx
  00403B12: B8 C8 87 40 00     mov         eax,4087C8h
  00403B17: 39 30              cmp         dword ptr [eax],esi
  00403B19: 74 72              je          00403B8D
  00403B1B: 83 C0 30           add         eax,30h
  00403B1E: 42                 inc         edx
  00403B1F: 3D B8 88 40 00     cmp         eax,4088B8h
  00403B24: 72 F1              jb          00403B17
  00403B26: 8D 45 E8           lea         eax,[ebp-18h]
  00403B29: 50                 push        eax
  00403B2A: 56                 push        esi
  00403B2B: FF 15 80 70 40 00  call        dword ptr ds:[00407080h]
  00403B31: 83 F8 01           cmp         eax,1
  00403B34: 0F 85 24 01 00 00  jne         00403C5E
  00403B3A: 6A 40              push        40h
  00403B3C: 33 C0              xor         eax,eax
  00403B3E: 59                 pop         ecx
  00403B3F: BF 00 AC 40 00     mov         edi,40AC00h
  00403B44: 83 7D E8 01        cmp         dword ptr [ebp-18h],1
  00403B48: 89 35 D8 AA 40 00  mov         dword ptr ds:[0040AAD8h],esi
  00403B4E: F3 AB              rep stos    dword ptr es:[edi]
  00403B50: AA                 stos        byte ptr es:[edi]
  00403B51: 89 1D 04 AD 40 00  mov         dword ptr ds:[0040AD04h],ebx
  00403B57: 0F 86 EF 00 00 00  jbe         00403C4C
  00403B5D: 80 7D EE 00        cmp         byte ptr [ebp-12h],0
  00403B61: 0F 84 BB 00 00 00  je          00403C22
  00403B67: 8D 4D EF           lea         ecx,[ebp-11h]
  00403B6A: 8A 11              mov         dl,byte ptr [ecx]
  00403B6C: 84 D2              test        dl,dl
  00403B6E: 0F 84 AE 00 00 00  je          00403C22
  00403B74: 0F B6 41 FF        movzx       eax,byte ptr [ecx-1]
  00403B78: 0F B6 D2           movzx       edx,dl
  00403B7B: 3B C2              cmp         eax,edx
  00403B7D: 0F 87 93 00 00 00  ja          00403C16
  00403B83: 80 88 01 AC 40 00  or          byte ptr [eax+0040AC01h],4
            04
  00403B8A: 40                 inc         eax
  00403B8B: EB EE              jmp         00403B7B
  00403B8D: 6A 40              push        40h
  00403B8F: 33 C0              xor         eax,eax
  00403B91: 59                 pop         ecx
  00403B92: BF 00 AC 40 00     mov         edi,40AC00h
  00403B97: F3 AB              rep stos    dword ptr es:[edi]
  00403B99: 8D 34 52           lea         esi,[edx+edx*2]
  00403B9C: 89 5D FC           mov         dword ptr [ebp-4],ebx
  00403B9F: C1 E6 04           shl         esi,4
  00403BA2: AA                 stos        byte ptr es:[edi]
  00403BA3: 8D 9E D8 87 40 00  lea         ebx,[esi+004087D8h]
  00403BA9: 80 3B 00           cmp         byte ptr [ebx],0
  00403BAC: 8B CB              mov         ecx,ebx
  00403BAE: 74 2C              je          00403BDC
  00403BB0: 8A 51 01           mov         dl,byte ptr [ecx+1]
  00403BB3: 84 D2              test        dl,dl
  00403BB5: 74 25              je          00403BDC
  00403BB7: 0F B6 01           movzx       eax,byte ptr [ecx]
  00403BBA: 0F B6 FA           movzx       edi,dl
  00403BBD: 3B C7              cmp         eax,edi
  00403BBF: 77 14              ja          00403BD5
  00403BC1: 8B 55 FC           mov         edx,dword ptr [ebp-4]
  00403BC4: 8A 92 C0 87 40 00  mov         dl,byte ptr [edx+004087C0h]
  00403BCA: 08 90 01 AC 40 00  or          byte ptr [eax+0040AC01h],dl
  00403BD0: 40                 inc         eax
  00403BD1: 3B C7              cmp         eax,edi
  00403BD3: 76 F5              jbe         00403BCA
  00403BD5: 41                 inc         ecx
  00403BD6: 41                 inc         ecx
  00403BD7: 80 39 00           cmp         byte ptr [ecx],0
  00403BDA: 75 D4              jne         00403BB0
  00403BDC: FF 45 FC           inc         dword ptr [ebp-4]
  00403BDF: 83 C3 08           add         ebx,8
  00403BE2: 83 7D FC 04        cmp         dword ptr [ebp-4],4
  00403BE6: 72 C1              jb          00403BA9
  00403BE8: 8B 45 08           mov         eax,dword ptr [ebp+8]
  00403BEB: C7 05 EC AA 40 00  mov         dword ptr ds:[0040AAECh],1
            01 00 00 00
  00403BF5: 50                 push        eax
  00403BF6: A3 D8 AA 40 00     mov         dword ptr ds:[0040AAD8h],eax
  00403BFB: E8 C6 00 00 00     call        00403CC6
  00403C00: 8D B6 CC 87 40 00  lea         esi,[esi+004087CCh]
  00403C06: BF E0 AA 40 00     mov         edi,40AAE0h
  00403C0B: A5                 movs        dword ptr es:[edi],dword ptr [esi]
  00403C0C: A5                 movs        dword ptr es:[edi],dword ptr [esi]
  00403C0D: 59                 pop         ecx
  00403C0E: A3 04 AD 40 00     mov         dword ptr ds:[0040AD04h],eax
  00403C13: A5                 movs        dword ptr es:[edi],dword ptr [esi]
  00403C14: EB 55              jmp         00403C6B
  00403C16: 41                 inc         ecx
  00403C17: 41                 inc         ecx
  00403C18: 80 79 FF 00        cmp         byte ptr [ecx-1],0
  00403C1C: 0F 85 48 FF FF FF  jne         00403B6A
  00403C22: 6A 01              push        1
  00403C24: 58                 pop         eax
  00403C25: 80 88 01 AC 40 00  or          byte ptr [eax+0040AC01h],8
            08
  00403C2C: 40                 inc         eax
  00403C2D: 3D FF 00 00 00     cmp         eax,0FFh
  00403C32: 72 F1              jb          00403C25
  00403C34: 56                 push        esi
  00403C35: E8 8C 00 00 00     call        00403CC6
  00403C3A: 59                 pop         ecx
  00403C3B: A3 04 AD 40 00     mov         dword ptr ds:[0040AD04h],eax
  00403C40: C7 05 EC AA 40 00  mov         dword ptr ds:[0040AAECh],1
            01 00 00 00
  00403C4A: EB 06              jmp         00403C52
  00403C4C: 89 1D EC AA 40 00  mov         dword ptr ds:[0040AAECh],ebx
  00403C52: 33 C0              xor         eax,eax
  00403C54: BF E0 AA 40 00     mov         edi,40AAE0h
  00403C59: AB                 stos        dword ptr es:[edi]
  00403C5A: AB                 stos        dword ptr es:[edi]
  00403C5B: AB                 stos        dword ptr es:[edi]
  00403C5C: EB 0D              jmp         00403C6B
  00403C5E: 39 1D 74 AA 40 00  cmp         dword ptr ds:[0040AA74h],ebx
  00403C64: 74 0E              je          00403C74
  00403C66: E8 8E 00 00 00     call        00403CF9
  00403C6B: E8 B2 00 00 00     call        00403D22
  00403C70: 33 C0              xor         eax,eax
  00403C72: EB 03              jmp         00403C77
  00403C74: 83 C8 FF           or          eax,0FFFFFFFFh
  00403C77: 5F                 pop         edi
  00403C78: 5E                 pop         esi
  00403C79: 5B                 pop         ebx
  00403C7A: C9                 leave
  00403C7B: C3                 ret
  00403C7C: 8B 44 24 04        mov         eax,dword ptr [esp+4]
  00403C80: 83 25 74 AA 40 00  and         dword ptr ds:[0040AA74h],0
            00
  00403C87: 83 F8 FE           cmp         eax,0FFFFFFFEh
  00403C8A: 75 10              jne         00403C9C
  00403C8C: C7 05 74 AA 40 00  mov         dword ptr ds:[0040AA74h],1
            01 00 00 00
  00403C96: FF 25 88 70 40 00  jmp         dword ptr ds:[00407088h]
  00403C9C: 83 F8 FD           cmp         eax,0FFFFFFFDh
  00403C9F: 75 10              jne         00403CB1
  00403CA1: C7 05 74 AA 40 00  mov         dword ptr ds:[0040AA74h],1
            01 00 00 00
  00403CAB: FF 25 84 70 40 00  jmp         dword ptr ds:[00407084h]
  00403CB1: 83 F8 FC           cmp         eax,0FFFFFFFCh
  00403CB4: 75 0F              jne         00403CC5
  00403CB6: A1 AC AA 40 00     mov         eax,dword ptr ds:[0040AAACh]
  00403CBB: C7 05 74 AA 40 00  mov         dword ptr ds:[0040AA74h],1
            01 00 00 00
  00403CC5: C3                 ret
  00403CC6: 8B 44 24 04        mov         eax,dword ptr [esp+4]
  00403CCA: 2D A4 03 00 00     sub         eax,3A4h
  00403CCF: 74 22              je          00403CF3
  00403CD1: 83 E8 04           sub         eax,4
  00403CD4: 74 17              je          00403CED
  00403CD6: 83 E8 0D           sub         eax,0Dh
  00403CD9: 74 0C              je          00403CE7
  00403CDB: 48                 dec         eax
  00403CDC: 74 03              je          00403CE1
  00403CDE: 33 C0              xor         eax,eax
  00403CE0: C3                 ret
  00403CE1: B8 04 04 00 00     mov         eax,404h
  00403CE6: C3                 ret
  00403CE7: B8 12 04 00 00     mov         eax,412h
  00403CEC: C3                 ret
  00403CED: B8 04 08 00 00     mov         eax,804h
  00403CF2: C3                 ret
  00403CF3: B8 11 04 00 00     mov         eax,411h
  00403CF8: C3                 ret
  00403CF9: 57                 push        edi
  00403CFA: 6A 40              push        40h
  00403CFC: 59                 pop         ecx
  00403CFD: 33 C0              xor         eax,eax
  00403CFF: BF 00 AC 40 00     mov         edi,40AC00h
  00403D04: F3 AB              rep stos    dword ptr es:[edi]
  00403D06: AA                 stos        byte ptr es:[edi]
  00403D07: 33 C0              xor         eax,eax
  00403D09: BF E0 AA 40 00     mov         edi,40AAE0h
  00403D0E: A3 D8 AA 40 00     mov         dword ptr ds:[0040AAD8h],eax
  00403D13: A3 EC AA 40 00     mov         dword ptr ds:[0040AAECh],eax
  00403D18: A3 04 AD 40 00     mov         dword ptr ds:[0040AD04h],eax
  00403D1D: AB                 stos        dword ptr es:[edi]
  00403D1E: AB                 stos        dword ptr es:[edi]
  00403D1F: AB                 stos        dword ptr es:[edi]
  00403D20: 5F                 pop         edi
  00403D21: C3                 ret
  00403D22: 55                 push        ebp
  00403D23: 8B EC              mov         ebp,esp
  00403D25: 81 EC 14 05 00 00  sub         esp,514h
  00403D2B: 8D 45 EC           lea         eax,[ebp-14h]
  00403D2E: 56                 push        esi
  00403D2F: 50                 push        eax
  00403D30: FF 35 D8 AA 40 00  push        dword ptr ds:[0040AAD8h]
  00403D36: FF 15 80 70 40 00  call        dword ptr ds:[00407080h]
  00403D3C: 83 F8 01           cmp         eax,1
  00403D3F: 0F 85 16 01 00 00  jne         00403E5B
  00403D45: 33 C0              xor         eax,eax
  00403D47: BE 00 01 00 00     mov         esi,100h
  00403D4C: 88 84 05 EC FE FF  mov         byte ptr [ebp+eax+FFFFFEECh],al
            FF
  00403D53: 40                 inc         eax
  00403D54: 3B C6              cmp         eax,esi
  00403D56: 72 F4              jb          00403D4C
  00403D58: 8A 45 F2           mov         al,byte ptr [ebp-0Eh]
  00403D5B: C6 85 EC FE FF FF  mov         byte ptr [ebp+FFFFFEECh],20h
            20
  00403D62: 84 C0              test        al,al
  00403D64: 74 37              je          00403D9D
  00403D66: 53                 push        ebx
  00403D67: 57                 push        edi
  00403D68: 8D 55 F3           lea         edx,[ebp-0Dh]
  00403D6B: 0F B6 0A           movzx       ecx,byte ptr [edx]
  00403D6E: 0F B6 C0           movzx       eax,al
  00403D71: 3B C1              cmp         eax,ecx
  00403D73: 77 1D              ja          00403D92
  00403D75: 2B C8              sub         ecx,eax
  00403D77: 8D BC 05 EC FE FF  lea         edi,[ebp+eax+FFFFFEECh]
            FF
  00403D7E: 41                 inc         ecx
  00403D7F: B8 20 20 20 20     mov         eax,20202020h
  00403D84: 8B D9              mov         ebx,ecx
  00403D86: C1 E9 02           shr         ecx,2
  00403D89: F3 AB              rep stos    dword ptr es:[edi]
  00403D8B: 8B CB              mov         ecx,ebx
  00403D8D: 83 E1 03           and         ecx,3
  00403D90: F3 AA              rep stos    byte ptr es:[edi]
  00403D92: 42                 inc         edx
  00403D93: 42                 inc         edx
  00403D94: 8A 42 FF           mov         al,byte ptr [edx-1]
  00403D97: 84 C0              test        al,al
  00403D99: 75 D0              jne         00403D6B
  00403D9B: 5F                 pop         edi
  00403D9C: 5B                 pop         ebx
  00403D9D: 6A 00              push        0
  00403D9F: 8D 85 EC FA FF FF  lea         eax,[ebp+FFFFFAECh]
  00403DA5: FF 35 04 AD 40 00  push        dword ptr ds:[0040AD04h]
  00403DAB: FF 35 D8 AA 40 00  push        dword ptr ds:[0040AAD8h]
  00403DB1: 50                 push        eax
  00403DB2: 8D 85 EC FE FF FF  lea         eax,[ebp+FFFFFEECh]
  00403DB8: 56                 push        esi
  00403DB9: 50                 push        eax
  00403DBA: 6A 01              push        1
  00403DBC: E8 CA 26 00 00     call        0040648B
  00403DC1: 6A 00              push        0
  00403DC3: 8D 85 EC FD FF FF  lea         eax,[ebp+FFFFFDECh]
  00403DC9: FF 35 D8 AA 40 00  push        dword ptr ds:[0040AAD8h]
  00403DCF: 56                 push        esi
  00403DD0: 50                 push        eax
  00403DD1: 8D 85 EC FE FF FF  lea         eax,[ebp+FFFFFEECh]
  00403DD7: 56                 push        esi
  00403DD8: 50                 push        eax
  00403DD9: 56                 push        esi
  00403DDA: FF 35 04 AD 40 00  push        dword ptr ds:[0040AD04h]
  00403DE0: E8 82 24 00 00     call        00406267
  00403DE5: 6A 00              push        0
  00403DE7: 8D 85 EC FC FF FF  lea         eax,[ebp+FFFFFCECh]
  00403DED: FF 35 D8 AA 40 00  push        dword ptr ds:[0040AAD8h]
  00403DF3: 56                 push        esi
  00403DF4: 50                 push        eax
  00403DF5: 8D 85 EC FE FF FF  lea         eax,[ebp+FFFFFEECh]
  00403DFB: 56                 push        esi
  00403DFC: 50                 push        eax
  00403DFD: 68 00 02 00 00     push        200h
  00403E02: FF 35 04 AD 40 00  push        dword ptr ds:[0040AD04h]
  00403E08: E8 5A 24 00 00     call        00406267
  00403E0D: 83 C4 5C           add         esp,5Ch
  00403E10: 33 C0              xor         eax,eax
  00403E12: 8D 8D EC FA FF FF  lea         ecx,[ebp+FFFFFAECh]
  00403E18: 66 8B 11           mov         dx,word ptr [ecx]
  00403E1B: F6 C2 01           test        dl,1
  00403E1E: 74 16              je          00403E36
  00403E20: 80 88 01 AC 40 00  or          byte ptr [eax+0040AC01h],10h
            10
  00403E27: 8A 94 05 EC FD FF  mov         dl,byte ptr [ebp+eax+FFFFFDECh]
            FF
  00403E2E: 88 90 00 AB 40 00  mov         byte ptr [eax+0040AB00h],dl
  00403E34: EB 1C              jmp         00403E52
  00403E36: F6 C2 02           test        dl,2
  00403E39: 74 10              je          00403E4B
  00403E3B: 80 88 01 AC 40 00  or          byte ptr [eax+0040AC01h],20h
            20
  00403E42: 8A 94 05 EC FC FF  mov         dl,byte ptr [ebp+eax+FFFFFCECh]
            FF
  00403E49: EB E3              jmp         00403E2E
  00403E4B: 80 A0 00 AB 40 00  and         byte ptr [eax+0040AB00h],0
            00
  00403E52: 40                 inc         eax
  00403E53: 41                 inc         ecx
  00403E54: 41                 inc         ecx
  00403E55: 3B C6              cmp         eax,esi
  00403E57: 72 BF              jb          00403E18
  00403E59: EB 49              jmp         00403EA4
  00403E5B: 33 C0              xor         eax,eax
  00403E5D: BE 00 01 00 00     mov         esi,100h
  00403E62: 83 F8 41           cmp         eax,41h
  00403E65: 72 19              jb          00403E80
  00403E67: 83 F8 5A           cmp         eax,5Ah
  00403E6A: 77 14              ja          00403E80
  00403E6C: 80 88 01 AC 40 00  or          byte ptr [eax+0040AC01h],10h
            10
  00403E73: 8A C8              mov         cl,al
  00403E75: 80 C1 20           add         cl,20h
  00403E78: 88 88 00 AB 40 00  mov         byte ptr [eax+0040AB00h],cl
  00403E7E: EB 1F              jmp         00403E9F
  00403E80: 83 F8 61           cmp         eax,61h
  00403E83: 72 13              jb          00403E98
  00403E85: 83 F8 7A           cmp         eax,7Ah
  00403E88: 77 0E              ja          00403E98
  00403E8A: 80 88 01 AC 40 00  or          byte ptr [eax+0040AC01h],20h
            20
  00403E91: 8A C8              mov         cl,al
  00403E93: 80 E9 20           sub         cl,20h
  00403E96: EB E0              jmp         00403E78
  00403E98: 80 A0 00 AB 40 00  and         byte ptr [eax+0040AB00h],0
            00
  00403E9F: 40                 inc         eax
  00403EA0: 3B C6              cmp         eax,esi
  00403EA2: 72 BE              jb          00403E62
  00403EA4: 5E                 pop         esi
  00403EA5: C9                 leave
  00403EA6: C3                 ret
  00403EA7: 83 3D 48 BE 40 00  cmp         dword ptr ds:[0040BE48h],0
            00
  00403EAE: 75 12              jne         00403EC2
  00403EB0: 6A FD              push        0FFFFFFFDh
  00403EB2: E8 2C FC FF FF     call        00403AE3
  00403EB7: 59                 pop         ecx
  00403EB8: C7 05 48 BE 40 00  mov         dword ptr ds:[0040BE48h],1
            01 00 00 00
  00403EC2: C3                 ret
  00403EC3: CC                 int         3
  00403EC4: CC                 int         3
  00403EC5: CC                 int         3
  00403EC6: CC                 int         3
  00403EC7: CC                 int         3
  00403EC8: CC                 int         3
  00403EC9: CC                 int         3
  00403ECA: CC                 int         3
  00403ECB: CC                 int         3
  00403ECC: CC                 int         3
  00403ECD: CC                 int         3
  00403ECE: CC                 int         3
  00403ECF: CC                 int         3
  00403ED0: 55                 push        ebp
  00403ED1: 8B EC              mov         ebp,esp
  00403ED3: 57                 push        edi
  00403ED4: 56                 push        esi
  00403ED5: 8B 75 0C           mov         esi,dword ptr [ebp+0Ch]
  00403ED8: 8B 4D 10           mov         ecx,dword ptr [ebp+10h]
  00403EDB: 8B 7D 08           mov         edi,dword ptr [ebp+8]
  00403EDE: 8B C1              mov         eax,ecx
  00403EE0: 8B D1              mov         edx,ecx
  00403EE2: 03 C6              add         eax,esi
  00403EE4: 3B FE              cmp         edi,esi
  00403EE6: 76 08              jbe         00403EF0
  00403EE8: 3B F8              cmp         edi,eax
  00403EEA: 0F 82 78 01 00 00  jb          00404068
  00403EF0: F7 C7 03 00 00 00  test        edi,3
  00403EF6: 75 14              jne         00403F0C
  00403EF8: C1 E9 02           shr         ecx,2
  00403EFB: 83 E2 03           and         edx,3
  00403EFE: 83 F9 08           cmp         ecx,8
  00403F01: 72 29              jb          00403F2C
  00403F03: F3 A5              rep movs    dword ptr es:[edi],dword ptr [esi]
  00403F05: FF 24 95 18 40 40  jmp         dword ptr [edx*4+00404018h]
            00
  00403F0C: 8B C7              mov         eax,edi
  00403F0E: BA 03 00 00 00     mov         edx,3
  00403F13: 83 E9 04           sub         ecx,4
  00403F16: 72 0C              jb          00403F24
  00403F18: 83 E0 03           and         eax,3
  00403F1B: 03 C8              add         ecx,eax
  00403F1D: FF 24 85 30 3F 40  jmp         dword ptr [eax*4+00403F30h]
            00
  00403F24: FF 24 8D 28 40 40  jmp         dword ptr [ecx*4+00404028h]
            00
  00403F2B: 90                 nop
  00403F2C: FF 24 8D AC 3F 40  jmp         dword ptr [ecx*4+00403FACh]
            00
  00403F33: 90                 nop
  00403F34: 40                 inc         eax
  00403F35: 3F                 aas
  00403F36: 40                 inc         eax
  00403F37: 00 6C 3F 40        add         byte ptr [edi+edi+40h],ch
  00403F3B: 00 90 3F 40 00 23  add         byte ptr [eax+2300403Fh],dl
  00403F41: D1 8A 06 88 07 8A  ror         dword ptr [edx+8A078806h],1
  00403F47: 46                 inc         esi
  00403F48: 01 88 47 01 8A 46  add         dword ptr [eax+468A0147h],ecx
  00403F4E: 02 C1              add         al,cl
  00403F50: E9 02 88 47 02     jmp         0287C757
  00403F55: 83 C6 03           add         esi,3
  00403F58: 83 C7 03           add         edi,3
  00403F5B: 83 F9 08           cmp         ecx,8
  00403F5E: 72 CC              jb          00403F2C
  00403F60: F3 A5              rep movs    dword ptr es:[edi],dword ptr [esi]
  00403F62: FF 24 95 18 40 40  jmp         dword ptr [edx*4+00404018h]
            00
  00403F69: 8D 49 00           lea         ecx,[ecx]
  00403F6C: 23 D1              and         edx,ecx
  00403F6E: 8A 06              mov         al,byte ptr [esi]
  00403F70: 88 07              mov         byte ptr [edi],al
  00403F72: 8A 46 01           mov         al,byte ptr [esi+1]
  00403F75: C1 E9 02           shr         ecx,2
  00403F78: 88 47 01           mov         byte ptr [edi+1],al
  00403F7B: 83 C6 02           add         esi,2
  00403F7E: 83 C7 02           add         edi,2
  00403F81: 83 F9 08           cmp         ecx,8
  00403F84: 72 A6              jb          00403F2C
  00403F86: F3 A5              rep movs    dword ptr es:[edi],dword ptr [esi]
  00403F88: FF 24 95 18 40 40  jmp         dword ptr [edx*4+00404018h]
            00
  00403F8F: 90                 nop
  00403F90: 23 D1              and         edx,ecx
  00403F92: 8A 06              mov         al,byte ptr [esi]
  00403F94: 88 07              mov         byte ptr [edi],al
  00403F96: 46                 inc         esi
  00403F97: C1 E9 02           shr         ecx,2
  00403F9A: 47                 inc         edi
  00403F9B: 83 F9 08           cmp         ecx,8
  00403F9E: 72 8C              jb          00403F2C
  00403FA0: F3 A5              rep movs    dword ptr es:[edi],dword ptr [esi]
  00403FA2: FF 24 95 18 40 40  jmp         dword ptr [edx*4+00404018h]
            00
  00403FA9: 8D 49 00           lea         ecx,[ecx]
  00403FAC: 0F 40 40 00        cmovo       eax,dword ptr [eax]
  00403FB0: FC                 cld
  00403FB1: 3F                 aas
  00403FB2: 40                 inc         eax
  00403FB3: 00 F4              add         ah,dh
  00403FB5: 3F                 aas
  00403FB6: 40                 inc         eax
  00403FB7: 00 EC              add         ah,ch
  00403FB9: 3F                 aas
  00403FBA: 40                 inc         eax
  00403FBB: 00 E4              add         ah,ah
  00403FBD: 3F                 aas
  00403FBE: 40                 inc         eax
  00403FBF: 00 DC              add         ah,bl
  00403FC1: 3F                 aas
  00403FC2: 40                 inc         eax
  00403FC3: 00 D4              add         ah,dl
  00403FC5: 3F                 aas
  00403FC6: 40                 inc         eax
  00403FC7: 00 CC              add         ah,cl
  00403FC9: 3F                 aas
  00403FCA: 40                 inc         eax
  00403FCB: 00 8B 44 8E E4 89  add         byte ptr [ebx+89E48E44h],cl
  00403FD1: 44                 inc         esp
  00403FD2: 8F
  00403FD3: E4 8B              in          al,8Bh
  00403FD5: 44                 inc         esp
  00403FD6: 8E E8              mov         gs,ax
  00403FD8: 89 44 8F E8        mov         dword ptr [edi+ecx*4-18h],eax
  00403FDC: 8B 44 8E EC        mov         eax,dword ptr [esi+ecx*4-14h]
  00403FE0: 89 44 8F EC        mov         dword ptr [edi+ecx*4-14h],eax
  00403FE4: 8B 44 8E F0        mov         eax,dword ptr [esi+ecx*4-10h]
  00403FE8: 89 44 8F F0        mov         dword ptr [edi+ecx*4-10h],eax
  00403FEC: 8B 44 8E F4        mov         eax,dword ptr [esi+ecx*4-0Ch]
  00403FF0: 89 44 8F F4        mov         dword ptr [edi+ecx*4-0Ch],eax
  00403FF4: 8B 44 8E F8        mov         eax,dword ptr [esi+ecx*4-8]
  00403FF8: 89 44 8F F8        mov         dword ptr [edi+ecx*4-8],eax
  00403FFC: 8B 44 8E FC        mov         eax,dword ptr [esi+ecx*4-4]
  00404000: 89 44 8F FC        mov         dword ptr [edi+ecx*4-4],eax
  00404004: 8D 04 8D 00 00 00  lea         eax,[ecx*4+00000000h]
            00
  0040400B: 03 F0              add         esi,eax
  0040400D: 03 F8              add         edi,eax
  0040400F: FF 24 95 18 40 40  jmp         dword ptr [edx*4+00404018h]
            00
  00404016: 8B FF              mov         edi,edi
  00404018: 28 40 40           sub         byte ptr [eax+40h],al
  0040401B: 00 30              add         byte ptr [eax],dh
  0040401D: 40                 inc         eax
  0040401E: 40                 inc         eax
  0040401F: 00 3C 40           add         byte ptr [eax+eax*2],bh
  00404022: 40                 inc         eax
  00404023: 00 50 40           add         byte ptr [eax+40h],dl
  00404026: 40                 inc         eax
  00404027: 00 8B 45 08 5E 5F  add         byte ptr [ebx+5F5E0845h],cl
  0040402D: C9                 leave
  0040402E: C3                 ret
  0040402F: 90                 nop
  00404030: 8A 06              mov         al,byte ptr [esi]
  00404032: 88 07              mov         byte ptr [edi],al
  00404034: 8B 45 08           mov         eax,dword ptr [ebp+8]
  00404037: 5E                 pop         esi
  00404038: 5F                 pop         edi
  00404039: C9                 leave
  0040403A: C3                 ret
  0040403B: 90                 nop
  0040403C: 8A 06              mov         al,byte ptr [esi]
  0040403E: 88 07              mov         byte ptr [edi],al
  00404040: 8A 46 01           mov         al,byte ptr [esi+1]
  00404043: 88 47 01           mov         byte ptr [edi+1],al
  00404046: 8B 45 08           mov         eax,dword ptr [ebp+8]
  00404049: 5E                 pop         esi
  0040404A: 5F                 pop         edi
  0040404B: C9                 leave
  0040404C: C3                 ret
  0040404D: 8D 49 00           lea         ecx,[ecx]
  00404050: 8A 06              mov         al,byte ptr [esi]
  00404052: 88 07              mov         byte ptr [edi],al
  00404054: 8A 46 01           mov         al,byte ptr [esi+1]
  00404057: 88 47 01           mov         byte ptr [edi+1],al
  0040405A: 8A 46 02           mov         al,byte ptr [esi+2]
  0040405D: 88 47 02           mov         byte ptr [edi+2],al
  00404060: 8B 45 08           mov         eax,dword ptr [ebp+8]
  00404063: 5E                 pop         esi
  00404064: 5F                 pop         edi
  00404065: C9                 leave
  00404066: C3                 ret
  00404067: 90                 nop
  00404068: 8D 74 31 FC        lea         esi,[ecx+esi-4]
  0040406C: 8D 7C 39 FC        lea         edi,[ecx+edi-4]
  00404070: F7 C7 03 00 00 00  test        edi,3
  00404076: 75 24              jne         0040409C
  00404078: C1 E9 02           shr         ecx,2
  0040407B: 83 E2 03           and         edx,3
  0040407E: 83 F9 08           cmp         ecx,8
  00404081: 72 0D              jb          00404090
  00404083: FD                 std
  00404084: F3 A5              rep movs    dword ptr es:[edi],dword ptr [esi]
  00404086: FC                 cld
  00404087: FF 24 95 B0 41 40  jmp         dword ptr [edx*4+004041B0h]
            00
  0040408E: 8B FF              mov         edi,edi
  00404090: F7 D9              neg         ecx
  00404092: FF 24 8D 60 41 40  jmp         dword ptr [ecx*4+00404160h]
            00
  00404099: 8D 49 00           lea         ecx,[ecx]
  0040409C: 8B C7              mov         eax,edi
  0040409E: BA 03 00 00 00     mov         edx,3
  004040A3: 83 F9 04           cmp         ecx,4
  004040A6: 72 0C              jb          004040B4
  004040A8: 83 E0 03           and         eax,3
  004040AB: 2B C8              sub         ecx,eax
  004040AD: FF 24 85 B8 40 40  jmp         dword ptr [eax*4+004040B8h]
            00
  004040B4: FF 24 8D B0 41 40  jmp         dword ptr [ecx*4+004041B0h]
            00
  004040BB: 90                 nop
  004040BC: C8 40 40 00        enter       4040h,0
  004040C0: E8 40 40 00 10     call        10408105
  004040C5: 41                 inc         ecx
  004040C6: 40                 inc         eax
  004040C7: 00 8A 46 03 23 D1  add         byte ptr [edx+D1230346h],cl
  004040CD: 88 47 03           mov         byte ptr [edi+3],al
  004040D0: 4E                 dec         esi
  004040D1: C1 E9 02           shr         ecx,2
  004040D4: 4F                 dec         edi
  004040D5: 83 F9 08           cmp         ecx,8
  004040D8: 72 B6              jb          00404090
  004040DA: FD                 std
  004040DB: F3 A5              rep movs    dword ptr es:[edi],dword ptr [esi]
  004040DD: FC                 cld
  004040DE: FF 24 95 B0 41 40  jmp         dword ptr [edx*4+004041B0h]
            00
  004040E5: 8D 49 00           lea         ecx,[ecx]
  004040E8: 8A 46 03           mov         al,byte ptr [esi+3]
  004040EB: 23 D1              and         edx,ecx
  004040ED: 88 47 03           mov         byte ptr [edi+3],al
  004040F0: 8A 46 02           mov         al,byte ptr [esi+2]
  004040F3: C1 E9 02           shr         ecx,2
  004040F6: 88 47 02           mov         byte ptr [edi+2],al
  004040F9: 83 EE 02           sub         esi,2
  004040FC: 83 EF 02           sub         edi,2
  004040FF: 83 F9 08           cmp         ecx,8
  00404102: 72 8C              jb          00404090
  00404104: FD                 std
  00404105: F3 A5              rep movs    dword ptr es:[edi],dword ptr [esi]
  00404107: FC                 cld
  00404108: FF 24 95 B0 41 40  jmp         dword ptr [edx*4+004041B0h]
            00
  0040410F: 90                 nop
  00404110: 8A 46 03           mov         al,byte ptr [esi+3]
  00404113: 23 D1              and         edx,ecx
  00404115: 88 47 03           mov         byte ptr [edi+3],al
  00404118: 8A 46 02           mov         al,byte ptr [esi+2]
  0040411B: 88 47 02           mov         byte ptr [edi+2],al
  0040411E: 8A 46 01           mov         al,byte ptr [esi+1]
  00404121: C1 E9 02           shr         ecx,2
  00404124: 88 47 01           mov         byte ptr [edi+1],al
  00404127: 83 EE 03           sub         esi,3
  0040412A: 83 EF 03           sub         edi,3
  0040412D: 83 F9 08           cmp         ecx,8
  00404130: 0F 82 5A FF FF FF  jb          00404090
  00404136: FD                 std
  00404137: F3 A5              rep movs    dword ptr es:[edi],dword ptr [esi]
  00404139: FC                 cld
  0040413A: FF 24 95 B0 41 40  jmp         dword ptr [edx*4+004041B0h]
            00
  00404141: 8D 49 00           lea         ecx,[ecx]
  00404144: 64 41              inc         ecx
  00404146: 40                 inc         eax
  00404147: 00 6C 41 40        add         byte ptr [ecx+eax*2+40h],ch
  0040414B: 00 74 41 40        add         byte ptr [ecx+eax*2+40h],dh
  0040414F: 00 7C 41 40        add         byte ptr [ecx+eax*2+40h],bh
  00404153: 00 84 41 40 00 8C  add         byte ptr [ecx+eax*2+418C0040h],al
            41
  0040415A: 40                 inc         eax
  0040415B: 00 94 41 40 00 A7  add         byte ptr [ecx+eax*2+41A70040h],dl
            41
  00404162: 40                 inc         eax
  00404163: 00 8B 44 8E 1C 89  add         byte ptr [ebx+891C8E44h],cl
  00404169: 44                 inc         esp
  0040416A: 8F
  0040416B: 1C 8B              sbb         al,8Bh
  0040416D: 44                 inc         esp
  0040416E: 8E 18              mov         ds,word ptr [eax]
  00404170: 89 44 8F 18        mov         dword ptr [edi+ecx*4+18h],eax
  00404174: 8B 44 8E 14        mov         eax,dword ptr [esi+ecx*4+14h]
  00404178: 89 44 8F 14        mov         dword ptr [edi+ecx*4+14h],eax
  0040417C: 8B 44 8E 10        mov         eax,dword ptr [esi+ecx*4+10h]
  00404180: 89 44 8F 10        mov         dword ptr [edi+ecx*4+10h],eax
  00404184: 8B 44 8E 0C        mov         eax,dword ptr [esi+ecx*4+0Ch]
  00404188: 89 44 8F 0C        mov         dword ptr [edi+ecx*4+0Ch],eax
  0040418C: 8B 44 8E 08        mov         eax,dword ptr [esi+ecx*4+8]
  00404190: 89 44 8F 08        mov         dword ptr [edi+ecx*4+8],eax
  00404194: 8B 44 8E 04        mov         eax,dword ptr [esi+ecx*4+4]
  00404198: 89 44 8F 04        mov         dword ptr [edi+ecx*4+4],eax
  0040419C: 8D 04 8D 00 00 00  lea         eax,[ecx*4+00000000h]
            00
  004041A3: 03 F0              add         esi,eax
  004041A5: 03 F8              add         edi,eax
  004041A7: FF 24 95 B0 41 40  jmp         dword ptr [edx*4+004041B0h]
            00
  004041AE: 8B FF              mov         edi,edi
  004041B0: C0 41 40 00        rol         byte ptr [ecx+40h],0
  004041B4: C8 41 40 00        enter       4041h,0
  004041B8: D8 41 40           fadd        dword ptr [ecx+40h]
  004041BB: 00 EC              add         ah,ch
  004041BD: 41                 inc         ecx
  004041BE: 40                 inc         eax
  004041BF: 00 8B 45 08 5E 5F  add         byte ptr [ebx+5F5E0845h],cl
  004041C5: C9                 leave
  004041C6: C3                 ret
  004041C7: 90                 nop
  004041C8: 8A 46 03           mov         al,byte ptr [esi+3]
  004041CB: 88 47 03           mov         byte ptr [edi+3],al
  004041CE: 8B 45 08           mov         eax,dword ptr [ebp+8]
  004041D1: 5E                 pop         esi
  004041D2: 5F                 pop         edi
  004041D3: C9                 leave
  004041D4: C3                 ret
  004041D5: 8D 49 00           lea         ecx,[ecx]
  004041D8: 8A 46 03           mov         al,byte ptr [esi+3]
  004041DB: 88 47 03           mov         byte ptr [edi+3],al
  004041DE: 8A 46 02           mov         al,byte ptr [esi+2]
  004041E1: 88 47 02           mov         byte ptr [edi+2],al
  004041E4: 8B 45 08           mov         eax,dword ptr [ebp+8]
  004041E7: 5E                 pop         esi
  004041E8: 5F                 pop         edi
  004041E9: C9                 leave
  004041EA: C3                 ret
  004041EB: 90                 nop
  004041EC: 8A 46 03           mov         al,byte ptr [esi+3]
  004041EF: 88 47 03           mov         byte ptr [edi+3],al
  004041F2: 8A 46 02           mov         al,byte ptr [esi+2]
  004041F5: 88 47 02           mov         byte ptr [edi+2],al
  004041F8: 8A 46 01           mov         al,byte ptr [esi+1]
  004041FB: 88 47 01           mov         byte ptr [edi+1],al
  004041FE: 8B 45 08           mov         eax,dword ptr [ebp+8]
  00404201: 5E                 pop         esi
  00404202: 5F                 pop         edi
  00404203: C9                 leave
  00404204: C3                 ret
  00404205: 6A 00              push        0
  00404207: FF 74 24 10        push        dword ptr [esp+10h]
  0040420B: FF 74 24 10        push        dword ptr [esp+10h]
  0040420F: FF 74 24 10        push        dword ptr [esp+10h]
  00404213: E8 04 00 00 00     call        0040421C
  00404218: 83 C4 10           add         esp,10h
  0040421B: C3                 ret
  0040421C: 55                 push        ebp
  0040421D: 8B EC              mov         ebp,esp
  0040421F: 83 EC 0C           sub         esp,0Ch
  00404222: 53                 push        ebx
  00404223: 83 65 F8 00        and         dword ptr [ebp-8],0
  00404227: 56                 push        esi
  00404228: 57                 push        edi
  00404229: 8B 7D 08           mov         edi,dword ptr [ebp+8]
  0040422C: 8A 1F              mov         bl,byte ptr [edi]
  0040422E: 8D 77 01           lea         esi,[edi+1]
  00404231: 89 75 FC           mov         dword ptr [ebp-4],esi
  00404234: 83 3D F0 A8 40 00  cmp         dword ptr ds:[0040A8F0h],1
            01
  0040423B: 7E 0F              jle         0040424C
  0040423D: 0F B6 C3           movzx       eax,bl
  00404240: 6A 08              push        8
  00404242: 50                 push        eax
  00404243: E8 58 24 00 00     call        004066A0
  00404248: 59                 pop         ecx
  00404249: 59                 pop         ecx
  0040424A: EB 0F              jmp         0040425B
  0040424C: 8B 0D A8 85 40 00  mov         ecx,dword ptr ds:[004085A8h]
  00404252: 0F B6 C3           movzx       eax,bl
  00404255: 8A 04 41           mov         al,byte ptr [ecx+eax*2]
  00404258: 83 E0 08           and         eax,8
  0040425B: 85 C0              test        eax,eax
  0040425D: 74 05              je          00404264
  0040425F: 8A 1E              mov         bl,byte ptr [esi]
  00404261: 46                 inc         esi
  00404262: EB D0              jmp         00404234
  00404264: 80 FB 2D           cmp         bl,2Dh
  00404267: 89 75 FC           mov         dword ptr [ebp-4],esi
  0040426A: 75 06              jne         00404272
  0040426C: 83 4D 14 02        or          dword ptr [ebp+14h],2
  00404270: EB 05              jmp         00404277
  00404272: 80 FB 2B           cmp         bl,2Bh
  00404275: 75 06              jne         0040427D
  00404277: 8A 1E              mov         bl,byte ptr [esi]
  00404279: 46                 inc         esi
  0040427A: 89 75 FC           mov         dword ptr [ebp-4],esi
  0040427D: 8B 45 10           mov         eax,dword ptr [ebp+10h]
  00404280: 85 C0              test        eax,eax
  00404282: 0F 8C 8C 01 00 00  jl          00404414
  00404288: 83 F8 01           cmp         eax,1
  0040428B: 0F 84 83 01 00 00  je          00404414
  00404291: 83 F8 24           cmp         eax,24h
  00404294: 0F 8F 7A 01 00 00  jg          00404414
  0040429A: 6A 10              push        10h
  0040429C: 85 C0              test        eax,eax
  0040429E: 59                 pop         ecx
  0040429F: 75 24              jne         004042C5
  004042A1: 80 FB 30           cmp         bl,30h
  004042A4: 74 09              je          004042AF
  004042A6: C7 45 10 0A 00 00  mov         dword ptr [ebp+10h],0Ah
            00
  004042AD: EB 32              jmp         004042E1
  004042AF: 8A 06              mov         al,byte ptr [esi]
  004042B1: 3C 78              cmp         al,78h
  004042B3: 74 0D              je          004042C2
  004042B5: 3C 58              cmp         al,58h
  004042B7: 74 09              je          004042C2
  004042B9: C7 45 10 08 00 00  mov         dword ptr [ebp+10h],8
            00
  004042C0: EB 1F              jmp         004042E1
  004042C2: 89 4D 10           mov         dword ptr [ebp+10h],ecx
  004042C5: 39 4D 10           cmp         dword ptr [ebp+10h],ecx
  004042C8: 75 17              jne         004042E1
  004042CA: 80 FB 30           cmp         bl,30h
  004042CD: 75 12              jne         004042E1
  004042CF: 8A 06              mov         al,byte ptr [esi]
  004042D1: 3C 78              cmp         al,78h
  004042D3: 74 04              je          004042D9
  004042D5: 3C 58              cmp         al,58h
  004042D7: 75 08              jne         004042E1
  004042D9: 8A 5E 01           mov         bl,byte ptr [esi+1]
  004042DC: 46                 inc         esi
  004042DD: 46                 inc         esi
  004042DE: 89 75 FC           mov         dword ptr [ebp-4],esi
  004042E1: 83 C8 FF           or          eax,0FFFFFFFFh
  004042E4: 33 D2              xor         edx,edx
  004042E6: F7 75 10           div         eax,dword ptr [ebp+10h]
  004042E9: BF 03 01 00 00     mov         edi,103h
  004042EE: 89 45 F4           mov         dword ptr [ebp-0Ch],eax
  004042F1: 83 3D F0 A8 40 00  cmp         dword ptr ds:[0040A8F0h],1
            01
  004042F8: 0F B6 F3           movzx       esi,bl
  004042FB: 7E 0C              jle         00404309
  004042FD: 6A 04              push        4
  004042FF: 56                 push        esi
  00404300: E8 9B 23 00 00     call        004066A0
  00404305: 59                 pop         ecx
  00404306: 59                 pop         ecx
  00404307: EB 0B              jmp         00404314
  00404309: A1 A8 85 40 00     mov         eax,dword ptr ds:[004085A8h]
  0040430E: 8A 04 70           mov         al,byte ptr [eax+esi*2]
  00404311: 83 E0 04           and         eax,4
  00404314: 85 C0              test        eax,eax
  00404316: 74 08              je          00404320
  00404318: 0F BE CB           movsx       ecx,bl
  0040431B: 83 E9 30           sub         ecx,30h
  0040431E: EB 32              jmp         00404352
  00404320: 83 3D F0 A8 40 00  cmp         dword ptr ds:[0040A8F0h],1
            01
  00404327: 7E 0B              jle         00404334
  00404329: 57                 push        edi
  0040432A: 56                 push        esi
  0040432B: E8 70 23 00 00     call        004066A0
  00404330: 59                 pop         ecx
  00404331: 59                 pop         ecx
  00404332: EB 0B              jmp         0040433F
  00404334: A1 A8 85 40 00     mov         eax,dword ptr ds:[004085A8h]
  00404339: 66 8B 04 70        mov         ax,word ptr [eax+esi*2]
  0040433D: 23 C7              and         eax,edi
  0040433F: 85 C0              test        eax,eax
  00404341: 74 4A              je          0040438D
  00404343: 0F BE C3           movsx       eax,bl
  00404346: 50                 push        eax
  00404347: E8 88 22 00 00     call        004065D4
  0040434C: 59                 pop         ecx
  0040434D: 8B C8              mov         ecx,eax
  0040434F: 83 E9 37           sub         ecx,37h
  00404352: 3B 4D 10           cmp         ecx,dword ptr [ebp+10h]
  00404355: 73 36              jae         0040438D
  00404357: 8B 75 F8           mov         esi,dword ptr [ebp-8]
  0040435A: 83 4D 14 08        or          dword ptr [ebp+14h],8
  0040435E: 3B 75 F4           cmp         esi,dword ptr [ebp-0Ch]
  00404361: 72 14              jb          00404377
  00404363: 75 0C              jne         00404371
  00404365: 83 C8 FF           or          eax,0FFFFFFFFh
  00404368: 33 D2              xor         edx,edx
  0040436A: F7 75 10           div         eax,dword ptr [ebp+10h]
  0040436D: 3B CA              cmp         ecx,edx
  0040436F: 76 06              jbe         00404377
  00404371: 83 4D 14 04        or          dword ptr [ebp+14h],4
  00404375: EB 09              jmp         00404380
  00404377: 0F AF 75 10        imul        esi,dword ptr [ebp+10h]
  0040437B: 03 F1              add         esi,ecx
  0040437D: 89 75 F8           mov         dword ptr [ebp-8],esi
  00404380: 8B 45 FC           mov         eax,dword ptr [ebp-4]
  00404383: FF 45 FC           inc         dword ptr [ebp-4]
  00404386: 8A 18              mov         bl,byte ptr [eax]
  00404388: E9 64 FF FF FF     jmp         004042F1
  0040438D: 8B 4D 14           mov         ecx,dword ptr [ebp+14h]
  00404390: FF 4D FC           dec         dword ptr [ebp-4]
  00404393: 8B 55 0C           mov         edx,dword ptr [ebp+0Ch]
  00404396: F6 C1 08           test        cl,8
  00404399: 75 10              jne         004043AB
  0040439B: 85 D2              test        edx,edx
  0040439D: 74 06              je          004043A5
  0040439F: 8B 45 08           mov         eax,dword ptr [ebp+8]
  004043A2: 89 45 FC           mov         dword ptr [ebp-4],eax
  004043A5: 83 65 F8 00        and         dword ptr [ebp-8],0
  004043A9: EB 4D              jmp         004043F8
  004043AB: F6 C1 04           test        cl,4
  004043AE: B8 FF FF FF 7F     mov         eax,7FFFFFFFh
  004043B3: 75 1C              jne         004043D1
  004043B5: F6 C1 01           test        cl,1
  004043B8: 75 3E              jne         004043F8
  004043BA: 83 E1 02           and         ecx,2
  004043BD: 74 09              je          004043C8
  004043BF: 81 7D F8 00 00 00  cmp         dword ptr [ebp-8],80000000h
            80
  004043C6: 77 09              ja          004043D1
  004043C8: 85 C9              test        ecx,ecx
  004043CA: 75 2C              jne         004043F8
  004043CC: 39 45 F8           cmp         dword ptr [ebp-8],eax
  004043CF: 76 27              jbe         004043F8
  004043D1: F6 45 14 01        test        byte ptr [ebp+14h],1
  004043D5: C7 05 0C A9 40 00  mov         dword ptr ds:[0040A90Ch],22h
            22 00 00 00
  004043DF: 74 06              je          004043E7
  004043E1: 83 4D F8 FF        or          dword ptr [ebp-8],0FFFFFFFFh
  004043E5: EB 11              jmp         004043F8
  004043E7: 8B 4D 14           mov         ecx,dword ptr [ebp+14h]
  004043EA: 80 E1 02           and         cl,2
  004043ED: F6 D9              neg         cl
  004043EF: 1B C9              sbb         ecx,ecx
  004043F1: F7 D9              neg         ecx
  004043F3: 03 C8              add         ecx,eax
  004043F5: 89 4D F8           mov         dword ptr [ebp-8],ecx
  004043F8: 85 D2              test        edx,edx
  004043FA: 74 05              je          00404401
  004043FC: 8B 45 FC           mov         eax,dword ptr [ebp-4]
  004043FF: 89 02              mov         dword ptr [edx],eax
  00404401: F6 45 14 02        test        byte ptr [ebp+14h],2
  00404405: 74 08              je          0040440F
  00404407: 8B 45 F8           mov         eax,dword ptr [ebp-8]
  0040440A: F7 D8              neg         eax
  0040440C: 89 45 F8           mov         dword ptr [ebp-8],eax
  0040440F: 8B 45 F8           mov         eax,dword ptr [ebp-8]
  00404412: EB 0B              jmp         0040441F
  00404414: 8B 45 0C           mov         eax,dword ptr [ebp+0Ch]
  00404417: 85 C0              test        eax,eax
  00404419: 74 02              je          0040441D
  0040441B: 89 38              mov         dword ptr [eax],edi
  0040441D: 33 C0              xor         eax,eax
  0040441F: 5F                 pop         edi
  00404420: 5E                 pop         esi
  00404421: 5B                 pop         ebx
  00404422: C9                 leave
  00404423: C3                 ret
  00404424: CC                 int         3
  00404425: CC                 int         3
  00404426: CC                 int         3
  00404427: CC                 int         3
  00404428: CC                 int         3
  00404429: CC                 int         3
  0040442A: CC                 int         3
  0040442B: CC                 int         3
  0040442C: CC                 int         3
  0040442D: CC                 int         3
  0040442E: CC                 int         3
  0040442F: CC                 int         3
  00404430: 8D 42 FF           lea         eax,[edx-1]
  00404433: 5B                 pop         ebx
  00404434: C3                 ret
  00404435: 8D A4 24 00 00 00  lea         esp,[esp+00000000h]
            00
  0040443C: 8D 64 24 00        lea         esp,[esp]
  00404440: 33 C0              xor         eax,eax
  00404442: 8A 44 24 08        mov         al,byte ptr [esp+8]
  00404446: 53                 push        ebx
  00404447: 8B D8              mov         ebx,eax
  00404449: C1 E0 08           shl         eax,8
  0040444C: 8B 54 24 08        mov         edx,dword ptr [esp+8]
  00404450: F7 C2 03 00 00 00  test        edx,3
  00404456: 74 13              je          0040446B
  00404458: 8A 0A              mov         cl,byte ptr [edx]
  0040445A: 42                 inc         edx
  0040445B: 38 D9              cmp         cl,bl
  0040445D: 74 D1              je          00404430
  0040445F: 84 C9              test        cl,cl
  00404461: 74 51              je          004044B4
  00404463: F7 C2 03 00 00 00  test        edx,3
  00404469: 75 ED              jne         00404458
  0040446B: 0B D8              or          ebx,eax
  0040446D: 57                 push        edi
  0040446E: 8B C3              mov         eax,ebx
  00404470: C1 E3 10           shl         ebx,10h
  00404473: 56                 push        esi
  00404474: 0B D8              or          ebx,eax
  00404476: 8B 0A              mov         ecx,dword ptr [edx]
  00404478: BF FF FE FE 7E     mov         edi,7EFEFEFFh
  0040447D: 8B C1              mov         eax,ecx
  0040447F: 8B F7              mov         esi,edi
  00404481: 33 CB              xor         ecx,ebx
  00404483: 03 F0              add         esi,eax
  00404485: 03 F9              add         edi,ecx
  00404487: 83 F1 FF           xor         ecx,0FFFFFFFFh
  0040448A: 83 F0 FF           xor         eax,0FFFFFFFFh
  0040448D: 33 CF              xor         ecx,edi
  0040448F: 33 C6              xor         eax,esi
  00404491: 83 C2 04           add         edx,4
  00404494: 81 E1 00 01 01 81  and         ecx,81010100h
  0040449A: 75 1C              jne         004044B8
  0040449C: 25 00 01 01 81     and         eax,81010100h
  004044A1: 74 D3              je          00404476
  004044A3: 25 00 01 01 01     and         eax,1010100h
  004044A8: 75 08              jne         004044B2
  004044AA: 81 E6 00 00 00 80  and         esi,80000000h
  004044B0: 75 C4              jne         00404476
  004044B2: 5E                 pop         esi
  004044B3: 5F                 pop         edi
  004044B4: 5B                 pop         ebx
  004044B5: 33 C0              xor         eax,eax
  004044B7: C3                 ret
  004044B8: 8B 42 FC           mov         eax,dword ptr [edx-4]
  004044BB: 38 D8              cmp         al,bl
  004044BD: 74 36              je          004044F5
  004044BF: 84 C0              test        al,al
  004044C1: 74 EF              je          004044B2
  004044C3: 38 DC              cmp         ah,bl
  004044C5: 74 27              je          004044EE
  004044C7: 84 E4              test        ah,ah
  004044C9: 74 E7              je          004044B2
  004044CB: C1 E8 10           shr         eax,10h
  004044CE: 38 D8              cmp         al,bl
  004044D0: 74 15              je          004044E7
  004044D2: 84 C0              test        al,al
  004044D4: 74 DC              je          004044B2
  004044D6: 38 DC              cmp         ah,bl
  004044D8: 74 06              je          004044E0
  004044DA: 84 E4              test        ah,ah
  004044DC: 74 D4              je          004044B2
  004044DE: EB 96              jmp         00404476
  004044E0: 5E                 pop         esi
  004044E1: 5F                 pop         edi
  004044E2: 8D 42 FF           lea         eax,[edx-1]
  004044E5: 5B                 pop         ebx
  004044E6: C3                 ret
  004044E7: 8D 42 FE           lea         eax,[edx-2]
  004044EA: 5E                 pop         esi
  004044EB: 5F                 pop         edi
  004044EC: 5B                 pop         ebx
  004044ED: C3                 ret
  004044EE: 8D 42 FD           lea         eax,[edx-3]
  004044F1: 5E                 pop         esi
  004044F2: 5F                 pop         edi
  004044F3: 5B                 pop         ebx
  004044F4: C3                 ret
  004044F5: 8D 42 FC           lea         eax,[edx-4]
  004044F8: 5E                 pop         esi
  004044F9: 5F                 pop         edi
  004044FA: 5B                 pop         ebx
  004044FB: C3                 ret
  004044FC: CC                 int         3
  004044FD: CC                 int         3
  004044FE: CC                 int         3
  004044FF: CC                 int         3
  00404500: 8B 4C 24 08        mov         ecx,dword ptr [esp+8]
  00404504: 57                 push        edi
  00404505: 53                 push        ebx
  00404506: 56                 push        esi
  00404507: 8A 11              mov         dl,byte ptr [ecx]
  00404509: 8B 7C 24 10        mov         edi,dword ptr [esp+10h]
  0040450D: 84 D2              test        dl,dl
  0040450F: 74 69              je          0040457A
  00404511: 8A 71 01           mov         dh,byte ptr [ecx+1]
  00404514: 84 F6              test        dh,dh
  00404516: 74 4F              je          00404567
  00404518: 8B F7              mov         esi,edi
  0040451A: 8B 4C 24 14        mov         ecx,dword ptr [esp+14h]
  0040451E: 8A 07              mov         al,byte ptr [edi]
  00404520: 46                 inc         esi
  00404521: 38 D0              cmp         al,dl
  00404523: 74 15              je          0040453A
  00404525: 84 C0              test        al,al
  00404527: 74 0B              je          00404534
  00404529: 8A 06              mov         al,byte ptr [esi]
  0040452B: 46                 inc         esi
  0040452C: 38 D0              cmp         al,dl
  0040452E: 74 0A              je          0040453A
  00404530: 84 C0              test        al,al
  00404532: 75 F5              jne         00404529
  00404534: 5E                 pop         esi
  00404535: 5B                 pop         ebx
  00404536: 5F                 pop         edi
  00404537: 33 C0              xor         eax,eax
  00404539: C3                 ret
  0040453A: 8A 06              mov         al,byte ptr [esi]
  0040453C: 46                 inc         esi
  0040453D: 38 F0              cmp         al,dh
  0040453F: 75 EB              jne         0040452C
  00404541: 8D 7E FF           lea         edi,[esi-1]
  00404544: 8A 61 02           mov         ah,byte ptr [ecx+2]
  00404547: 84 E4              test        ah,ah
  00404549: 74 28              je          00404573
  0040454B: 8A 06              mov         al,byte ptr [esi]
  0040454D: 83 C6 02           add         esi,2
  00404550: 38 E0              cmp         al,ah
  00404552: 75 C4              jne         00404518
  00404554: 8A 41 03           mov         al,byte ptr [ecx+3]
  00404557: 84 C0              test        al,al
  00404559: 74 18              je          00404573
  0040455B: 8A 66 FF           mov         ah,byte ptr [esi-1]
  0040455E: 83 C1 02           add         ecx,2
  00404561: 38 E0              cmp         al,ah
  00404563: 74 DF              je          00404544
  00404565: EB B1              jmp         00404518
  00404567: 33 C0              xor         eax,eax
  00404569: 5E                 pop         esi
  0040456A: 5B                 pop         ebx
  0040456B: 5F                 pop         edi
  0040456C: 8A C2              mov         al,dl
  0040456E: E9 D3 FE FF FF     jmp         00404446
  00404573: 8D 47 FF           lea         eax,[edi-1]
  00404576: 5E                 pop         esi
  00404577: 5B                 pop         ebx
  00404578: 5F                 pop         edi
  00404579: C3                 ret
  0040457A: 8B C7              mov         eax,edi
  0040457C: 5E                 pop         esi
  0040457D: 5B                 pop         ebx
  0040457E: 5F                 pop         edi
  0040457F: C3                 ret
  00404580: 55                 push        ebp
  00404581: 8B EC              mov         ebp,esp
  00404583: 57                 push        edi
  00404584: 56                 push        esi
  00404585: 53                 push        ebx
  00404586: 8B 4D 10           mov         ecx,dword ptr [ebp+10h]
  00404589: E3 26              jecxz       004045B1
  0040458B: 8B D9              mov         ebx,ecx
  0040458D: 8B 7D 08           mov         edi,dword ptr [ebp+8]
  00404590: 8B F7              mov         esi,edi
  00404592: 33 C0              xor         eax,eax
  00404594: F2 AE              repne scas  byte ptr es:[edi]
  00404596: F7 D9              neg         ecx
  00404598: 03 CB              add         ecx,ebx
  0040459A: 8B FE              mov         edi,esi
  0040459C: 8B 75 0C           mov         esi,dword ptr [ebp+0Ch]
  0040459F: F3 A6              repe cmps   byte ptr [esi],byte ptr es:[edi]
  004045A1: 8A 46 FF           mov         al,byte ptr [esi-1]
  004045A4: 33 C9              xor         ecx,ecx
  004045A6: 3A 47 FF           cmp         al,byte ptr [edi-1]
  004045A9: 77 04              ja          004045AF
  004045AB: 74 04              je          004045B1
  004045AD: 49                 dec         ecx
  004045AE: 49                 dec         ecx
  004045AF: F7 D1              not         ecx
  004045B1: 8B C1              mov         eax,ecx
  004045B3: 5B                 pop         ebx
  004045B4: 5E                 pop         esi
  004045B5: 5F                 pop         edi
  004045B6: C9                 leave
  004045B7: C3                 ret
  004045B8: CC                 int         3
  004045B9: CC                 int         3
  004045BA: CC                 int         3
  004045BB: CC                 int         3
  004045BC: CC                 int         3
  004045BD: CC                 int         3
  004045BE: CC                 int         3
  004045BF: CC                 int         3
  004045C0: 51                 push        ecx
  004045C1: 3D 00 10 00 00     cmp         eax,1000h
  004045C6: 8D 4C 24 08        lea         ecx,[esp+8]
  004045CA: 72 14              jb          004045E0
  004045CC: 81 E9 00 10 00 00  sub         ecx,1000h
  004045D2: 2D 00 10 00 00     sub         eax,1000h
  004045D7: 85 01              test        dword ptr [ecx],eax
  004045D9: 3D 00 10 00 00     cmp         eax,1000h
  004045DE: 73 EC              jae         004045CC
  004045E0: 2B C8              sub         ecx,eax
  004045E2: 8B C4              mov         eax,esp
  004045E4: 85 01              test        dword ptr [ecx],eax
  004045E6: 8B E1              mov         esp,ecx
  004045E8: 8B 08              mov         ecx,dword ptr [eax]
  004045EA: 8B 40 04           mov         eax,dword ptr [eax+4]
  004045ED: 50                 push        eax
  004045EE: C3                 ret
  004045EF: 68 40 01 00 00     push        140h
  004045F4: 6A 00              push        0
  004045F6: FF 35 08 AD 40 00  push        dword ptr ds:[0040AD08h]
  004045FC: FF 15 6C 70 40 00  call        dword ptr ds:[0040706Ch]
  00404602: 85 C0              test        eax,eax
  00404604: A3 D0 AA 40 00     mov         dword ptr ds:[0040AAD0h],eax
  00404609: 75 01              jne         0040460C
  0040460B: C3                 ret
  0040460C: 8B 4C 24 04        mov         ecx,dword ptr [esp+4]
  00404610: 83 25 C8 AA 40 00  and         dword ptr ds:[0040AAC8h],0
            00
  00404617: 83 25 CC AA 40 00  and         dword ptr ds:[0040AACCh],0
            00
  0040461E: 6A 01              push        1
  00404620: A3 C4 AA 40 00     mov         dword ptr ds:[0040AAC4h],eax
  00404625: 89 0D D4 AA 40 00  mov         dword ptr ds:[0040AAD4h],ecx
  0040462B: C7 05 BC AA 40 00  mov         dword ptr ds:[0040AABCh],10h
            10 00 00 00
  00404635: 58                 pop         eax
  00404636: C3                 ret
  00404637: A1 CC AA 40 00     mov         eax,dword ptr ds:[0040AACCh]
  0040463C: 8D 0C 80           lea         ecx,[eax+eax*4]
  0040463F: A1 D0 AA 40 00     mov         eax,dword ptr ds:[0040AAD0h]
  00404644: 8D 0C 88           lea         ecx,[eax+ecx*4]
  00404647: 3B C1              cmp         eax,ecx
  00404649: 73 14              jae         0040465F
  0040464B: 8B 54 24 04        mov         edx,dword ptr [esp+4]
  0040464F: 2B 50 0C           sub         edx,dword ptr [eax+0Ch]
  00404652: 81 FA 00 00 10 00  cmp         edx,100000h
  00404658: 72 07              jb          00404661
  0040465A: 83 C0 14           add         eax,14h
  0040465D: EB E8              jmp         00404647
  0040465F: 33 C0              xor         eax,eax
  00404661: C3                 ret
  00404662: 55                 push        ebp
  00404663: 8B EC              mov         ebp,esp
  00404665: 83 EC 10           sub         esp,10h
  00404668: 8B 4D 08           mov         ecx,dword ptr [ebp+8]
  0040466B: 53                 push        ebx
  0040466C: 56                 push        esi
  0040466D: 8B 75 0C           mov         esi,dword ptr [ebp+0Ch]
  00404670: 8B 41 10           mov         eax,dword ptr [ecx+10h]
  00404673: 57                 push        edi
  00404674: 8B FE              mov         edi,esi
  00404676: 83 C6 FC           add         esi,0FFFFFFFCh
  00404679: 2B 79 0C           sub         edi,dword ptr [ecx+0Ch]
  0040467C: C1 EF 0F           shr         edi,0Fh
  0040467F: 8B CF              mov         ecx,edi
  00404681: 69 C9 04 02 00 00  imul        ecx,ecx,204h
  00404687: 8D 8C 01 44 01 00  lea         ecx,[ecx+eax+00000144h]
            00
  0040468E: 89 4D F0           mov         dword ptr [ebp-10h],ecx
  00404691: 8B 0E              mov         ecx,dword ptr [esi]
  00404693: 49                 dec         ecx
  00404694: F6 C1 01           test        cl,1
  00404697: 89 4D FC           mov         dword ptr [ebp-4],ecx
  0040469A: 0F 85 E6 02 00 00  jne         00404986
  004046A0: 8B 14 31           mov         edx,dword ptr [ecx+esi]
  004046A3: 8D 1C 31           lea         ebx,[ecx+esi]
  004046A6: 89 55 F4           mov         dword ptr [ebp-0Ch],edx
  004046A9: 8B 56 FC           mov         edx,dword ptr [esi-4]
  004046AC: 89 55 F8           mov         dword ptr [ebp-8],edx
  004046AF: 8B 55 F4           mov         edx,dword ptr [ebp-0Ch]
  004046B2: F6 C2 01           test        dl,1
  004046B5: 89 5D 0C           mov         dword ptr [ebp+0Ch],ebx
  004046B8: 75 7E              jne         00404738
  004046BA: C1 FA 04           sar         edx,4
  004046BD: 4A                 dec         edx
  004046BE: 83 FA 3F           cmp         edx,3Fh
  004046C1: 76 03              jbe         004046C6
  004046C3: 6A 3F              push        3Fh
  004046C5: 5A                 pop         edx
  004046C6: 8B 4B 04           mov         ecx,dword ptr [ebx+4]
  004046C9: 3B 4B 08           cmp         ecx,dword ptr [ebx+8]
  004046CC: 75 4C              jne         0040471A
  004046CE: 83 FA 20           cmp         edx,20h
  004046D1: 73 1E              jae         004046F1
  004046D3: BB 00 00 00 80     mov         ebx,80000000h
  004046D8: 8B CA              mov         ecx,edx
  004046DA: D3 EB              shr         ebx,cl
  004046DC: 8D 4C 02 04        lea         ecx,[edx+eax+4]
  004046E0: F7 D3              not         ebx
  004046E2: 21 5C B8 44        and         dword ptr [eax+edi*4+44h],ebx
  004046E6: FE 09              dec         byte ptr [ecx]
  004046E8: 75 28              jne         00404712
  004046EA: 8B 4D 08           mov         ecx,dword ptr [ebp+8]
  004046ED: 21 19              and         dword ptr [ecx],ebx
  004046EF: EB 21              jmp         00404712
  004046F1: 8D 4A E0           lea         ecx,[edx-20h]
  004046F4: BB 00 00 00 80     mov         ebx,80000000h
  004046F9: D3 EB              shr         ebx,cl
  004046FB: 8D 4C 02 04        lea         ecx,[edx+eax+4]
  004046FF: F7 D3              not         ebx
  00404701: 21 9C B8 C4 00 00  and         dword ptr [eax+edi*4+000000C4h],ebx
            00
  00404708: FE 09              dec         byte ptr [ecx]
  0040470A: 75 06              jne         00404712
  0040470C: 8B 4D 08           mov         ecx,dword ptr [ebp+8]
  0040470F: 21 59 04           and         dword ptr [ecx+4],ebx
  00404712: 8B 4D FC           mov         ecx,dword ptr [ebp-4]
  00404715: 8B 5D 0C           mov         ebx,dword ptr [ebp+0Ch]
  00404718: EB 03              jmp         0040471D
  0040471A: 8B 4D FC           mov         ecx,dword ptr [ebp-4]
  0040471D: 8B 53 08           mov         edx,dword ptr [ebx+8]
  00404720: 8B 5B 04           mov         ebx,dword ptr [ebx+4]
  00404723: 03 4D F4           add         ecx,dword ptr [ebp-0Ch]
  00404726: 89 5A 04           mov         dword ptr [edx+4],ebx
  00404729: 8B 55 0C           mov         edx,dword ptr [ebp+0Ch]
  0040472C: 89 4D FC           mov         dword ptr [ebp-4],ecx
  0040472F: 8B 5A 04           mov         ebx,dword ptr [edx+4]
  00404732: 8B 52 08           mov         edx,dword ptr [edx+8]
  00404735: 89 53 08           mov         dword ptr [ebx+8],edx
  00404738: 8B D1              mov         edx,ecx
  0040473A: C1 FA 04           sar         edx,4
  0040473D: 4A                 dec         edx
  0040473E: 83 FA 3F           cmp         edx,3Fh
  00404741: 76 03              jbe         00404746
  00404743: 6A 3F              push        3Fh
  00404745: 5A                 pop         edx
  00404746: 8B 5D F8           mov         ebx,dword ptr [ebp-8]
  00404749: 83 E3 01           and         ebx,1
  0040474C: 89 5D F4           mov         dword ptr [ebp-0Ch],ebx
  0040474F: 0F 85 94 00 00 00  jne         004047E9
  00404755: 2B 75 F8           sub         esi,dword ptr [ebp-8]
  00404758: 8B 5D F8           mov         ebx,dword ptr [ebp-8]
  0040475B: C1 FB 04           sar         ebx,4
  0040475E: 6A 3F              push        3Fh
  00404760: 89 75 0C           mov         dword ptr [ebp+0Ch],esi
  00404763: 4B                 dec         ebx
  00404764: 5E                 pop         esi
  00404765: 3B DE              cmp         ebx,esi
  00404767: 76 02              jbe         0040476B
  00404769: 8B DE              mov         ebx,esi
  0040476B: 03 4D F8           add         ecx,dword ptr [ebp-8]
  0040476E: 8B D1              mov         edx,ecx
  00404770: 89 4D FC           mov         dword ptr [ebp-4],ecx
  00404773: C1 FA 04           sar         edx,4
  00404776: 4A                 dec         edx
  00404777: 3B D6              cmp         edx,esi
  00404779: 76 02              jbe         0040477D
  0040477B: 8B D6              mov         edx,esi
  0040477D: 3B DA              cmp         ebx,edx
  0040477F: 74 63              je          004047E4
  00404781: 8B 4D 0C           mov         ecx,dword ptr [ebp+0Ch]
  00404784: 8B 71 04           mov         esi,dword ptr [ecx+4]
  00404787: 3B 71 08           cmp         esi,dword ptr [ecx+8]
  0040478A: 75 40              jne         004047CC
  0040478C: 83 FB 20           cmp         ebx,20h
  0040478F: 73 1C              jae         004047AD
  00404791: BE 00 00 00 80     mov         esi,80000000h
  00404796: 8B CB              mov         ecx,ebx
  00404798: D3 EE              shr         esi,cl
  0040479A: F7 D6              not         esi
  0040479C: 21 74 B8 44        and         dword ptr [eax+edi*4+44h],esi
  004047A0: FE 4C 03 04        dec         byte ptr [ebx+eax+4]
  004047A4: 75 26              jne         004047CC
  004047A6: 8B 4D 08           mov         ecx,dword ptr [ebp+8]
  004047A9: 21 31              and         dword ptr [ecx],esi
  004047AB: EB 1F              jmp         004047CC
  004047AD: 8D 4B E0           lea         ecx,[ebx-20h]
  004047B0: BE 00 00 00 80     mov         esi,80000000h
  004047B5: D3 EE              shr         esi,cl
  004047B7: F7 D6              not         esi
  004047B9: 21 B4 B8 C4 00 00  and         dword ptr [eax+edi*4+000000C4h],esi
            00
  004047C0: FE 4C 03 04        dec         byte ptr [ebx+eax+4]
  004047C4: 75 06              jne         004047CC
  004047C6: 8B 4D 08           mov         ecx,dword ptr [ebp+8]
  004047C9: 21 71 04           and         dword ptr [ecx+4],esi
  004047CC: 8B 4D 0C           mov         ecx,dword ptr [ebp+0Ch]
  004047CF: 8B 71 08           mov         esi,dword ptr [ecx+8]
  004047D2: 8B 49 04           mov         ecx,dword ptr [ecx+4]
  004047D5: 89 4E 04           mov         dword ptr [esi+4],ecx
  004047D8: 8B 4D 0C           mov         ecx,dword ptr [ebp+0Ch]
  004047DB: 8B 71 04           mov         esi,dword ptr [ecx+4]
  004047DE: 8B 49 08           mov         ecx,dword ptr [ecx+8]
  004047E1: 89 4E 08           mov         dword ptr [esi+8],ecx
  004047E4: 8B 75 0C           mov         esi,dword ptr [ebp+0Ch]
  004047E7: EB 03              jmp         004047EC
  004047E9: 8B 5D 08           mov         ebx,dword ptr [ebp+8]
  004047EC: 83 7D F4 00        cmp         dword ptr [ebp-0Ch],0
  004047F0: 75 08              jne         004047FA
  004047F2: 3B DA              cmp         ebx,edx
  004047F4: 0F 84 81 00 00 00  je          0040487B
  004047FA: 8B 4D F0           mov         ecx,dword ptr [ebp-10h]
  004047FD: 8B 5C D1 04        mov         ebx,dword ptr [ecx+edx*8+4]
  00404801: 8D 0C D1           lea         ecx,[ecx+edx*8]
  00404804: 89 5E 04           mov         dword ptr [esi+4],ebx
  00404807: 89 4E 08           mov         dword ptr [esi+8],ecx
  0040480A: 89 71 04           mov         dword ptr [ecx+4],esi
  0040480D: 8B 4E 04           mov         ecx,dword ptr [esi+4]
  00404810: 89 71 08           mov         dword ptr [ecx+8],esi
  00404813: 8B 4E 04           mov         ecx,dword ptr [esi+4]
  00404816: 3B 4E 08           cmp         ecx,dword ptr [esi+8]
  00404819: 75 60              jne         0040487B
  0040481B: 8A 4C 02 04        mov         cl,byte ptr [edx+eax+4]
  0040481F: 83 FA 20           cmp         edx,20h
  00404822: 88 4D 0F           mov         byte ptr [ebp+0Fh],cl
  00404825: FE C1              inc         cl
  00404827: 88 4C 02 04        mov         byte ptr [edx+eax+4],cl
  0040482B: 73 25              jae         00404852
  0040482D: 80 7D 0F 00        cmp         byte ptr [ebp+0Fh],0
  00404831: 75 0E              jne         00404841
  00404833: BB 00 00 00 80     mov         ebx,80000000h
  00404838: 8B CA              mov         ecx,edx
  0040483A: D3 EB              shr         ebx,cl
  0040483C: 8B 4D 08           mov         ecx,dword ptr [ebp+8]
  0040483F: 09 19              or          dword ptr [ecx],ebx
  00404841: BB 00 00 00 80     mov         ebx,80000000h
  00404846: 8B CA              mov         ecx,edx
  00404848: D3 EB              shr         ebx,cl
  0040484A: 8D 44 B8 44        lea         eax,[eax+edi*4+44h]
  0040484E: 09 18              or          dword ptr [eax],ebx
  00404850: EB 29              jmp         0040487B
  00404852: 80 7D 0F 00        cmp         byte ptr [ebp+0Fh],0
  00404856: 75 10              jne         00404868
  00404858: 8D 4A E0           lea         ecx,[edx-20h]
  0040485B: BB 00 00 00 80     mov         ebx,80000000h
  00404860: D3 EB              shr         ebx,cl
  00404862: 8B 4D 08           mov         ecx,dword ptr [ebp+8]
  00404865: 09 59 04           or          dword ptr [ecx+4],ebx
  00404868: 8D 4A E0           lea         ecx,[edx-20h]
  0040486B: BA 00 00 00 80     mov         edx,80000000h
  00404870: D3 EA              shr         edx,cl
  00404872: 8D 84 B8 C4 00 00  lea         eax,[eax+edi*4+000000C4h]
            00
  00404879: 09 10              or          dword ptr [eax],edx
  0040487B: 8B 45 FC           mov         eax,dword ptr [ebp-4]
  0040487E: 89 06              mov         dword ptr [esi],eax
  00404880: 89 44 30 FC        mov         dword ptr [eax+esi-4],eax
  00404884: 8B 45 F0           mov         eax,dword ptr [ebp-10h]
  00404887: FF 08              dec         dword ptr [eax]
  00404889: 0F 85 F7 00 00 00  jne         00404986
  0040488F: A1 C8 AA 40 00     mov         eax,dword ptr ds:[0040AAC8h]
  00404894: 85 C0              test        eax,eax
  00404896: 0F 84 DC 00 00 00  je          00404978
  0040489C: 8B 0D C0 AA 40 00  mov         ecx,dword ptr ds:[0040AAC0h]
  004048A2: 8B 35 5C 70 40 00  mov         esi,dword ptr ds:[0040705Ch]
  004048A8: C1 E1 0F           shl         ecx,0Fh
  004048AB: 03 48 0C           add         ecx,dword ptr [eax+0Ch]
  004048AE: BB 00 80 00 00     mov         ebx,8000h
  004048B3: 68 00 40 00 00     push        4000h
  004048B8: 53                 push        ebx
  004048B9: 51                 push        ecx
  004048BA: FF D6              call        esi
  004048BC: 8B 0D C0 AA 40 00  mov         ecx,dword ptr ds:[0040AAC0h]
  004048C2: A1 C8 AA 40 00     mov         eax,dword ptr ds:[0040AAC8h]
  004048C7: BA 00 00 00 80     mov         edx,80000000h
  004048CC: D3 EA              shr         edx,cl
  004048CE: 09 50 08           or          dword ptr [eax+8],edx
  004048D1: A1 C8 AA 40 00     mov         eax,dword ptr ds:[0040AAC8h]
  004048D6: 8B 0D C0 AA 40 00  mov         ecx,dword ptr ds:[0040AAC0h]
  004048DC: 8B 40 10           mov         eax,dword ptr [eax+10h]
  004048DF: 83 A4 88 C4 00 00  and         dword ptr [eax+ecx*4+000000C4h],0
            00 00
  004048E7: A1 C8 AA 40 00     mov         eax,dword ptr ds:[0040AAC8h]
  004048EC: 8B 40 10           mov         eax,dword ptr [eax+10h]
  004048EF: FE 48 43           dec         byte ptr [eax+43h]
  004048F2: A1 C8 AA 40 00     mov         eax,dword ptr ds:[0040AAC8h]
  004048F7: 8B 48 10           mov         ecx,dword ptr [eax+10h]
  004048FA: 80 79 43 00        cmp         byte ptr [ecx+43h],0
  004048FE: 75 09              jne         00404909
  00404900: 83 60 04 FE        and         dword ptr [eax+4],0FFFFFFFEh
  00404904: A1 C8 AA 40 00     mov         eax,dword ptr ds:[0040AAC8h]
  00404909: 83 78 08 FF        cmp         dword ptr [eax+8],0FFFFFFFFh
  0040490D: 75 69              jne         00404978
  0040490F: 53                 push        ebx
  00404910: 6A 00              push        0
  00404912: FF 70 0C           push        dword ptr [eax+0Ch]
  00404915: FF D6              call        esi
  00404917: A1 C8 AA 40 00     mov         eax,dword ptr ds:[0040AAC8h]
  0040491C: FF 70 10           push        dword ptr [eax+10h]
  0040491F: 6A 00              push        0
  00404921: FF 35 08 AD 40 00  push        dword ptr ds:[0040AD08h]
  00404927: FF 15 60 70 40 00  call        dword ptr ds:[00407060h]
  0040492D: A1 CC AA 40 00     mov         eax,dword ptr ds:[0040AACCh]
  00404932: 8B 15 D0 AA 40 00  mov         edx,dword ptr ds:[0040AAD0h]
  00404938: 8D 04 80           lea         eax,[eax+eax*4]
  0040493B: C1 E0 02           shl         eax,2
  0040493E: 8B C8              mov         ecx,eax
  00404940: A1 C8 AA 40 00     mov         eax,dword ptr ds:[0040AAC8h]
  00404945: 2B C8              sub         ecx,eax
  00404947: 8D 4C 11 EC        lea         ecx,[ecx+edx-14h]
  0040494B: 51                 push        ecx
  0040494C: 8D 48 14           lea         ecx,[eax+14h]
  0040494F: 51                 push        ecx
  00404950: 50                 push        eax
  00404951: E8 CA 1D 00 00     call        00406720
  00404956: 8B 45 08           mov         eax,dword ptr [ebp+8]
  00404959: 83 C4 0C           add         esp,0Ch
  0040495C: FF 0D CC AA 40 00  dec         dword ptr ds:[0040AACCh]
  00404962: 3B 05 C8 AA 40 00  cmp         eax,dword ptr ds:[0040AAC8h]
  00404968: 76 04              jbe         0040496E
  0040496A: 83 6D 08 14        sub         dword ptr [ebp+8],14h
  0040496E: A1 D0 AA 40 00     mov         eax,dword ptr ds:[0040AAD0h]
  00404973: A3 C4 AA 40 00     mov         dword ptr ds:[0040AAC4h],eax
  00404978: 8B 45 08           mov         eax,dword ptr [ebp+8]
  0040497B: 89 3D C0 AA 40 00  mov         dword ptr ds:[0040AAC0h],edi
  00404981: A3 C8 AA 40 00     mov         dword ptr ds:[0040AAC8h],eax
  00404986: 5F                 pop         edi
  00404987: 5E                 pop         esi
  00404988: 5B                 pop         ebx
  00404989: C9                 leave
  0040498A: C3                 ret
  0040498B: 55                 push        ebp
  0040498C: 8B EC              mov         ebp,esp
  0040498E: 83 EC 14           sub         esp,14h
  00404991: A1 CC AA 40 00     mov         eax,dword ptr ds:[0040AACCh]
  00404996: 8B 15 D0 AA 40 00  mov         edx,dword ptr ds:[0040AAD0h]
  0040499C: 53                 push        ebx
  0040499D: 56                 push        esi
  0040499E: 8D 04 80           lea         eax,[eax+eax*4]
  004049A1: 57                 push        edi
  004049A2: 8D 3C 82           lea         edi,[edx+eax*4]
  004049A5: 8B 45 08           mov         eax,dword ptr [ebp+8]
  004049A8: 89 7D FC           mov         dword ptr [ebp-4],edi
  004049AB: 8D 48 17           lea         ecx,[eax+17h]
  004049AE: 83 E1 F0           and         ecx,0FFFFFFF0h
  004049B1: 89 4D F0           mov         dword ptr [ebp-10h],ecx
  004049B4: C1 F9 04           sar         ecx,4
  004049B7: 49                 dec         ecx
  004049B8: 83 F9 20           cmp         ecx,20h
  004049BB: 7D 0E              jge         004049CB
  004049BD: 83 CE FF           or          esi,0FFFFFFFFh
  004049C0: D3 EE              shr         esi,cl
  004049C2: 83 4D F8 FF        or          dword ptr [ebp-8],0FFFFFFFFh
  004049C6: 89 75 F4           mov         dword ptr [ebp-0Ch],esi
  004049C9: EB 10              jmp         004049DB
  004049CB: 83 C1 E0           add         ecx,0FFFFFFE0h
  004049CE: 83 C8 FF           or          eax,0FFFFFFFFh
  004049D1: 33 F6              xor         esi,esi
  004049D3: D3 E8              shr         eax,cl
  004049D5: 89 75 F4           mov         dword ptr [ebp-0Ch],esi
  004049D8: 89 45 F8           mov         dword ptr [ebp-8],eax
  004049DB: A1 C4 AA 40 00     mov         eax,dword ptr ds:[0040AAC4h]
  004049E0: 8B D8              mov         ebx,eax
  004049E2: 3B DF              cmp         ebx,edi
  004049E4: 89 5D 08           mov         dword ptr [ebp+8],ebx
  004049E7: 73 19              jae         00404A02
  004049E9: 8B 4B 04           mov         ecx,dword ptr [ebx+4]
  004049EC: 8B 3B              mov         edi,dword ptr [ebx]
  004049EE: 23 4D F8           and         ecx,dword ptr [ebp-8]
  004049F1: 23 FE              and         edi,esi
  004049F3: 0B CF              or          ecx,edi
  004049F5: 75 0B              jne         00404A02
  004049F7: 83 C3 14           add         ebx,14h
  004049FA: 3B 5D FC           cmp         ebx,dword ptr [ebp-4]
  004049FD: 89 5D 08           mov         dword ptr [ebp+8],ebx
  00404A00: 72 E7              jb          004049E9
  00404A02: 3B 5D FC           cmp         ebx,dword ptr [ebp-4]
  00404A05: 75 79              jne         00404A80
  00404A07: 8B DA              mov         ebx,edx
  00404A09: 3B D8              cmp         ebx,eax
  00404A0B: 89 5D 08           mov         dword ptr [ebp+8],ebx
  00404A0E: 73 15              jae         00404A25
  00404A10: 8B 4B 04           mov         ecx,dword ptr [ebx+4]
  00404A13: 8B 3B              mov         edi,dword ptr [ebx]
  00404A15: 23 4D F8           and         ecx,dword ptr [ebp-8]
  00404A18: 23 FE              and         edi,esi
  00404A1A: 0B CF              or          ecx,edi
  00404A1C: 75 05              jne         00404A23
  00404A1E: 83 C3 14           add         ebx,14h
  00404A21: EB E6              jmp         00404A09
  00404A23: 3B D8              cmp         ebx,eax
  00404A25: 75 59              jne         00404A80
  00404A27: 3B 5D FC           cmp         ebx,dword ptr [ebp-4]
  00404A2A: 73 11              jae         00404A3D
  00404A2C: 83 7B 08 00        cmp         dword ptr [ebx+8],0
  00404A30: 75 08              jne         00404A3A
  00404A32: 83 C3 14           add         ebx,14h
  00404A35: 89 5D 08           mov         dword ptr [ebp+8],ebx
  00404A38: EB ED              jmp         00404A27
  00404A3A: 3B 5D FC           cmp         ebx,dword ptr [ebp-4]
  00404A3D: 75 26              jne         00404A65
  00404A3F: 8B DA              mov         ebx,edx
  00404A41: 3B D8              cmp         ebx,eax
  00404A43: 89 5D 08           mov         dword ptr [ebp+8],ebx
  00404A46: 73 0D              jae         00404A55
  00404A48: 83 7B 08 00        cmp         dword ptr [ebx+8],0
  00404A4C: 75 05              jne         00404A53
  00404A4E: 83 C3 14           add         ebx,14h
  00404A51: EB EE              jmp         00404A41
  00404A53: 3B D8              cmp         ebx,eax
  00404A55: 75 0E              jne         00404A65
  00404A57: E8 38 02 00 00     call        00404C94
  00404A5C: 8B D8              mov         ebx,eax
  00404A5E: 85 DB              test        ebx,ebx
  00404A60: 89 5D 08           mov         dword ptr [ebp+8],ebx
  00404A63: 74 14              je          00404A79
  00404A65: 53                 push        ebx
  00404A66: E8 DA 02 00 00     call        00404D45
  00404A6B: 59                 pop         ecx
  00404A6C: 8B 4B 10           mov         ecx,dword ptr [ebx+10h]
  00404A6F: 89 01              mov         dword ptr [ecx],eax
  00404A71: 8B 43 10           mov         eax,dword ptr [ebx+10h]
  00404A74: 83 38 FF           cmp         dword ptr [eax],0FFFFFFFFh
  00404A77: 75 07              jne         00404A80
  00404A79: 33 C0              xor         eax,eax
  00404A7B: E9 0F 02 00 00     jmp         00404C8F
  00404A80: 89 1D C4 AA 40 00  mov         dword ptr ds:[0040AAC4h],ebx
  00404A86: 8B 43 10           mov         eax,dword ptr [ebx+10h]
  00404A89: 8B 10              mov         edx,dword ptr [eax]
  00404A8B: 83 FA FF           cmp         edx,0FFFFFFFFh
  00404A8E: 89 55 FC           mov         dword ptr [ebp-4],edx
  00404A91: 74 14              je          00404AA7
  00404A93: 8B 8C 90 C4 00 00  mov         ecx,dword ptr [eax+edx*4+000000C4h]
            00
  00404A9A: 8B 7C 90 44        mov         edi,dword ptr [eax+edx*4+44h]
  00404A9E: 23 4D F8           and         ecx,dword ptr [ebp-8]
  00404AA1: 23 FE              and         edi,esi
  00404AA3: 0B CF              or          ecx,edi
  00404AA5: 75 37              jne         00404ADE
  00404AA7: 8B 90 C4 00 00 00  mov         edx,dword ptr [eax+000000C4h]
  00404AAD: 8B 70 44           mov         esi,dword ptr [eax+44h]
  00404AB0: 23 55 F8           and         edx,dword ptr [ebp-8]
  00404AB3: 23 75 F4           and         esi,dword ptr [ebp-0Ch]
  00404AB6: 83 65 FC 00        and         dword ptr [ebp-4],0
  00404ABA: 8D 48 44           lea         ecx,[eax+44h]
  00404ABD: 0B D6              or          edx,esi
  00404ABF: 8B 75 F4           mov         esi,dword ptr [ebp-0Ch]
  00404AC2: 75 17              jne         00404ADB
  00404AC4: 8B 91 84 00 00 00  mov         edx,dword ptr [ecx+00000084h]
  00404ACA: FF 45 FC           inc         dword ptr [ebp-4]
  00404ACD: 23 55 F8           and         edx,dword ptr [ebp-8]
  00404AD0: 83 C1 04           add         ecx,4
  00404AD3: 8B FE              mov         edi,esi
  00404AD5: 23 39              and         edi,dword ptr [ecx]
  00404AD7: 0B D7              or          edx,edi
  00404AD9: 74 E9              je          00404AC4
  00404ADB: 8B 55 FC           mov         edx,dword ptr [ebp-4]
  00404ADE: 8B CA              mov         ecx,edx
  00404AE0: 33 FF              xor         edi,edi
  00404AE2: 69 C9 04 02 00 00  imul        ecx,ecx,204h
  00404AE8: 8D 8C 01 44 01 00  lea         ecx,[ecx+eax+00000144h]
            00
  00404AEF: 89 4D F4           mov         dword ptr [ebp-0Ch],ecx
  00404AF2: 8B 4C 90 44        mov         ecx,dword ptr [eax+edx*4+44h]
  00404AF6: 23 CE              and         ecx,esi
  00404AF8: 75 0D              jne         00404B07
  00404AFA: 8B 8C 90 C4 00 00  mov         ecx,dword ptr [eax+edx*4+000000C4h]
            00
  00404B01: 6A 20              push        20h
  00404B03: 23 4D F8           and         ecx,dword ptr [ebp-8]
  00404B06: 5F                 pop         edi
  00404B07: 85 C9              test        ecx,ecx
  00404B09: 7C 05              jl          00404B10
  00404B0B: D1 E1              shl         ecx,1
  00404B0D: 47                 inc         edi
  00404B0E: EB F7              jmp         00404B07
  00404B10: 8B 4D F4           mov         ecx,dword ptr [ebp-0Ch]
  00404B13: 8B 54 F9 04        mov         edx,dword ptr [ecx+edi*8+4]
  00404B17: 8B 0A              mov         ecx,dword ptr [edx]
  00404B19: 2B 4D F0           sub         ecx,dword ptr [ebp-10h]
  00404B1C: 8B F1              mov         esi,ecx
  00404B1E: 89 4D F8           mov         dword ptr [ebp-8],ecx
  00404B21: C1 FE 04           sar         esi,4
  00404B24: 4E                 dec         esi
  00404B25: 83 FE 3F           cmp         esi,3Fh
  00404B28: 7E 03              jle         00404B2D
  00404B2A: 6A 3F              push        3Fh
  00404B2C: 5E                 pop         esi
  00404B2D: 3B F7              cmp         esi,edi
  00404B2F: 0F 84 0D 01 00 00  je          00404C42
  00404B35: 8B 4A 04           mov         ecx,dword ptr [edx+4]
  00404B38: 3B 4A 08           cmp         ecx,dword ptr [edx+8]
  00404B3B: 75 61              jne         00404B9E
  00404B3D: 83 FF 20           cmp         edi,20h
  00404B40: 7D 2B              jge         00404B6D
  00404B42: BB 00 00 00 80     mov         ebx,80000000h
  00404B47: 8B CF              mov         ecx,edi
  00404B49: D3 EB              shr         ebx,cl
  00404B4B: 8B 4D FC           mov         ecx,dword ptr [ebp-4]
  00404B4E: 8D 7C 38 04        lea         edi,[eax+edi+4]
  00404B52: F7 D3              not         ebx
  00404B54: 89 5D EC           mov         dword ptr [ebp-14h],ebx
  00404B57: 23 5C 88 44        and         ebx,dword ptr [eax+ecx*4+44h]
  00404B5B: 89 5C 88 44        mov         dword ptr [eax+ecx*4+44h],ebx
  00404B5F: FE 0F              dec         byte ptr [edi]
  00404B61: 75 38              jne         00404B9B
  00404B63: 8B 5D 08           mov         ebx,dword ptr [ebp+8]
  00404B66: 8B 4D EC           mov         ecx,dword ptr [ebp-14h]
  00404B69: 21 0B              and         dword ptr [ebx],ecx
  00404B6B: EB 31              jmp         00404B9E
  00404B6D: 8D 4F E0           lea         ecx,[edi-20h]
  00404B70: BB 00 00 00 80     mov         ebx,80000000h
  00404B75: D3 EB              shr         ebx,cl
  00404B77: 8B 4D FC           mov         ecx,dword ptr [ebp-4]
  00404B7A: 8D 7C 38 04        lea         edi,[eax+edi+4]
  00404B7E: 8D 8C 88 C4 00 00  lea         ecx,[eax+ecx*4+000000C4h]
            00
  00404B85: F7 D3              not         ebx
  00404B87: 21 19              and         dword ptr [ecx],ebx
  00404B89: FE 0F              dec         byte ptr [edi]
  00404B8B: 89 5D EC           mov         dword ptr [ebp-14h],ebx
  00404B8E: 75 0B              jne         00404B9B
  00404B90: 8B 5D 08           mov         ebx,dword ptr [ebp+8]
  00404B93: 8B 4D EC           mov         ecx,dword ptr [ebp-14h]
  00404B96: 21 4B 04           and         dword ptr [ebx+4],ecx
  00404B99: EB 03              jmp         00404B9E
  00404B9B: 8B 5D 08           mov         ebx,dword ptr [ebp+8]
  00404B9E: 8B 4A 08           mov         ecx,dword ptr [edx+8]
  00404BA1: 8B 7A 04           mov         edi,dword ptr [edx+4]
  00404BA4: 83 7D F8 00        cmp         dword ptr [ebp-8],0
  00404BA8: 89 79 04           mov         dword ptr [ecx+4],edi
  00404BAB: 8B 4A 04           mov         ecx,dword ptr [edx+4]
  00404BAE: 8B 7A 08           mov         edi,dword ptr [edx+8]
  00404BB1: 89 79 08           mov         dword ptr [ecx+8],edi
  00404BB4: 0F 84 94 00 00 00  je          00404C4E
  00404BBA: 8B 4D F4           mov         ecx,dword ptr [ebp-0Ch]
  00404BBD: 8B 7C F1 04        mov         edi,dword ptr [ecx+esi*8+4]
  00404BC1: 8D 0C F1           lea         ecx,[ecx+esi*8]
  00404BC4: 89 7A 04           mov         dword ptr [edx+4],edi
  00404BC7: 89 4A 08           mov         dword ptr [edx+8],ecx
  00404BCA: 89 51 04           mov         dword ptr [ecx+4],edx
  00404BCD: 8B 4A 04           mov         ecx,dword ptr [edx+4]
  00404BD0: 89 51 08           mov         dword ptr [ecx+8],edx
  00404BD3: 8B 4A 04           mov         ecx,dword ptr [edx+4]
  00404BD6: 3B 4A 08           cmp         ecx,dword ptr [edx+8]
  00404BD9: 75 64              jne         00404C3F
  00404BDB: 8A 4C 06 04        mov         cl,byte ptr [esi+eax+4]
  00404BDF: 83 FE 20           cmp         esi,20h
  00404BE2: 88 4D 0B           mov         byte ptr [ebp+0Bh],cl
  00404BE5: 7D 29              jge         00404C10
  00404BE7: FE C1              inc         cl
  00404BE9: 80 7D 0B 00        cmp         byte ptr [ebp+0Bh],0
  00404BED: 88 4C 06 04        mov         byte ptr [esi+eax+4],cl
  00404BF1: 75 0B              jne         00404BFE
  00404BF3: BF 00 00 00 80     mov         edi,80000000h
  00404BF8: 8B CE              mov         ecx,esi
  00404BFA: D3 EF              shr         edi,cl
  00404BFC: 09 3B              or          dword ptr [ebx],edi
  00404BFE: BF 00 00 00 80     mov         edi,80000000h
  00404C03: 8B CE              mov         ecx,esi
  00404C05: D3 EF              shr         edi,cl
  00404C07: 8B 4D FC           mov         ecx,dword ptr [ebp-4]
  00404C0A: 09 7C 88 44        or          dword ptr [eax+ecx*4+44h],edi
  00404C0E: EB 2F              jmp         00404C3F
  00404C10: FE C1              inc         cl
  00404C12: 80 7D 0B 00        cmp         byte ptr [ebp+0Bh],0
  00404C16: 88 4C 06 04        mov         byte ptr [esi+eax+4],cl
  00404C1A: 75 0D              jne         00404C29
  00404C1C: 8D 4E E0           lea         ecx,[esi-20h]
  00404C1F: BF 00 00 00 80     mov         edi,80000000h
  00404C24: D3 EF              shr         edi,cl
  00404C26: 09 7B 04           or          dword ptr [ebx+4],edi
  00404C29: 8B 4D FC           mov         ecx,dword ptr [ebp-4]
  00404C2C: 8D BC 88 C4 00 00  lea         edi,[eax+ecx*4+000000C4h]
            00
  00404C33: 8D 4E E0           lea         ecx,[esi-20h]
  00404C36: BE 00 00 00 80     mov         esi,80000000h
  00404C3B: D3 EE              shr         esi,cl
  00404C3D: 09 37              or          dword ptr [edi],esi
  00404C3F: 8B 4D F8           mov         ecx,dword ptr [ebp-8]
  00404C42: 85 C9              test        ecx,ecx
  00404C44: 74 0B              je          00404C51
  00404C46: 89 0A              mov         dword ptr [edx],ecx
  00404C48: 89 4C 11 FC        mov         dword ptr [ecx+edx-4],ecx
  00404C4C: EB 03              jmp         00404C51
  00404C4E: 8B 4D F8           mov         ecx,dword ptr [ebp-8]
  00404C51: 8B 75 F0           mov         esi,dword ptr [ebp-10h]
  00404C54: 03 D1              add         edx,ecx
  00404C56: 8D 4E 01           lea         ecx,[esi+1]
  00404C59: 89 0A              mov         dword ptr [edx],ecx
  00404C5B: 89 4C 32 FC        mov         dword ptr [edx+esi-4],ecx
  00404C5F: 8B 75 F4           mov         esi,dword ptr [ebp-0Ch]
  00404C62: 8B 0E              mov         ecx,dword ptr [esi]
  00404C64: 85 C9              test        ecx,ecx
  00404C66: 8D 79 01           lea         edi,[ecx+1]
  00404C69: 89 3E              mov         dword ptr [esi],edi
  00404C6B: 75 1A              jne         00404C87
  00404C6D: 3B 1D C8 AA 40 00  cmp         ebx,dword ptr ds:[0040AAC8h]
  00404C73: 75 12              jne         00404C87
  00404C75: 8B 4D FC           mov         ecx,dword ptr [ebp-4]
  00404C78: 3B 0D C0 AA 40 00  cmp         ecx,dword ptr ds:[0040AAC0h]
  00404C7E: 75 07              jne         00404C87
  00404C80: 83 25 C8 AA 40 00  and         dword ptr ds:[0040AAC8h],0
            00
  00404C87: 8B 4D FC           mov         ecx,dword ptr [ebp-4]
  00404C8A: 89 08              mov         dword ptr [eax],ecx
  00404C8C: 8D 42 04           lea         eax,[edx+4]
  00404C8F: 5F                 pop         edi
  00404C90: 5E                 pop         esi
  00404C91: 5B                 pop         ebx
  00404C92: C9                 leave
  00404C93: C3                 ret
  00404C94: A1 CC AA 40 00     mov         eax,dword ptr ds:[0040AACCh]
  00404C99: 8B 0D BC AA 40 00  mov         ecx,dword ptr ds:[0040AABCh]
  00404C9F: 56                 push        esi
  00404CA0: 57                 push        edi
  00404CA1: 33 FF              xor         edi,edi
  00404CA3: 3B C1              cmp         eax,ecx
  00404CA5: 75 30              jne         00404CD7
  00404CA7: 8D 44 89 50        lea         eax,[ecx+ecx*4+50h]
  00404CAB: C1 E0 02           shl         eax,2
  00404CAE: 50                 push        eax
  00404CAF: FF 35 D0 AA 40 00  push        dword ptr ds:[0040AAD0h]
  00404CB5: 57                 push        edi
  00404CB6: FF 35 08 AD 40 00  push        dword ptr ds:[0040AD08h]
  00404CBC: FF 15 90 70 40 00  call        dword ptr ds:[00407090h]
  00404CC2: 3B C7              cmp         eax,edi
  00404CC4: 74 61              je          00404D27
  00404CC6: 83 05 BC AA 40 00  add         dword ptr ds:[0040AABCh],10h
            10
  00404CCD: A3 D0 AA 40 00     mov         dword ptr ds:[0040AAD0h],eax
  00404CD2: A1 CC AA 40 00     mov         eax,dword ptr ds:[0040AACCh]
  00404CD7: 8B 0D D0 AA 40 00  mov         ecx,dword ptr ds:[0040AAD0h]
  00404CDD: 68 C4 41 00 00     push        41C4h
  00404CE2: 6A 08              push        8
  00404CE4: 8D 04 80           lea         eax,[eax+eax*4]
  00404CE7: FF 35 08 AD 40 00  push        dword ptr ds:[0040AD08h]
  00404CED: 8D 34 81           lea         esi,[ecx+eax*4]
  00404CF0: FF 15 6C 70 40 00  call        dword ptr ds:[0040706Ch]
  00404CF6: 3B C7              cmp         eax,edi
  00404CF8: 89 46 10           mov         dword ptr [esi+10h],eax
  00404CFB: 74 2A              je          00404D27
  00404CFD: 6A 04              push        4
  00404CFF: 68 00 20 00 00     push        2000h
  00404D04: 68 00 00 10 00     push        100000h
  00404D09: 57                 push        edi
  00404D0A: FF 15 8C 70 40 00  call        dword ptr ds:[0040708Ch]
  00404D10: 3B C7              cmp         eax,edi
  00404D12: 89 46 0C           mov         dword ptr [esi+0Ch],eax
  00404D15: 75 14              jne         00404D2B
  00404D17: FF 76 10           push        dword ptr [esi+10h]
  00404D1A: 57                 push        edi
  00404D1B: FF 35 08 AD 40 00  push        dword ptr ds:[0040AD08h]
  00404D21: FF 15 60 70 40 00  call        dword ptr ds:[00407060h]
  00404D27: 33 C0              xor         eax,eax
  00404D29: EB 17              jmp         00404D42
  00404D2B: 83 4E 08 FF        or          dword ptr [esi+8],0FFFFFFFFh
  00404D2F: 89 3E              mov         dword ptr [esi],edi
  00404D31: 89 7E 04           mov         dword ptr [esi+4],edi
  00404D34: FF 05 CC AA 40 00  inc         dword ptr ds:[0040AACCh]
  00404D3A: 8B 46 10           mov         eax,dword ptr [esi+10h]
  00404D3D: 83 08 FF           or          dword ptr [eax],0FFFFFFFFh
  00404D40: 8B C6              mov         eax,esi
  00404D42: 5F                 pop         edi
  00404D43: 5E                 pop         esi
  00404D44: C3                 ret
  00404D45: 55                 push        ebp
  00404D46: 8B EC              mov         ebp,esp
  00404D48: 51                 push        ecx
  00404D49: 8B 4D 08           mov         ecx,dword ptr [ebp+8]
  00404D4C: 53                 push        ebx
  00404D4D: 56                 push        esi
  00404D4E: 57                 push        edi
  00404D4F: 8B 71 10           mov         esi,dword ptr [ecx+10h]
  00404D52: 8B 41 08           mov         eax,dword ptr [ecx+8]
  00404D55: 33 DB              xor         ebx,ebx
  00404D57: 85 C0              test        eax,eax
  00404D59: 7C 05              jl          00404D60
  00404D5B: D1 E0              shl         eax,1
  00404D5D: 43                 inc         ebx
  00404D5E: EB F7              jmp         00404D57
  00404D60: 8B C3              mov         eax,ebx
  00404D62: 6A 3F              push        3Fh
  00404D64: 69 C0 04 02 00 00  imul        eax,eax,204h
  00404D6A: 5A                 pop         edx
  00404D6B: 8D 84 30 44 01 00  lea         eax,[eax+esi+00000144h]
            00
  00404D72: 89 45 FC           mov         dword ptr [ebp-4],eax
  00404D75: 89 40 08           mov         dword ptr [eax+8],eax
  00404D78: 89 40 04           mov         dword ptr [eax+4],eax
  00404D7B: 83 C0 08           add         eax,8
  00404D7E: 4A                 dec         edx
  00404D7F: 75 F4              jne         00404D75
  00404D81: 8B FB              mov         edi,ebx
  00404D83: 6A 04              push        4
  00404D85: C1 E7 0F           shl         edi,0Fh
  00404D88: 03 79 0C           add         edi,dword ptr [ecx+0Ch]
  00404D8B: 68 00 10 00 00     push        1000h
  00404D90: 68 00 80 00 00     push        8000h
  00404D95: 57                 push        edi
  00404D96: FF 15 8C 70 40 00  call        dword ptr ds:[0040708Ch]
  00404D9C: 85 C0              test        eax,eax
  00404D9E: 75 08              jne         00404DA8
  00404DA0: 83 C8 FF           or          eax,0FFFFFFFFh
  00404DA3: E9 93 00 00 00     jmp         00404E3B
  00404DA8: 8D 97 00 70 00 00  lea         edx,[edi+00007000h]
  00404DAE: 3B FA              cmp         edi,edx
  00404DB0: 77 3C              ja          00404DEE
  00404DB2: 8D 47 10           lea         eax,[edi+10h]
  00404DB5: 83 48 F8 FF        or          dword ptr [eax-8],0FFFFFFFFh
  00404DB9: 83 88 EC 0F 00 00  or          dword ptr [eax+00000FECh],0FFFFFFFFh
            FF
  00404DC0: 8D 88 FC 0F 00 00  lea         ecx,[eax+00000FFCh]
  00404DC6: C7 40 FC F0 0F 00  mov         dword ptr [eax-4],0FF0h
            00
  00404DCD: 89 08              mov         dword ptr [eax],ecx
  00404DCF: 8D 88 FC EF FF FF  lea         ecx,[eax+FFFFEFFCh]
  00404DD5: 89 48 04           mov         dword ptr [eax+4],ecx
  00404DD8: C7 80 E8 0F 00 00  mov         dword ptr [eax+00000FE8h],0FF0h
            F0 0F 00 00
  00404DE2: 05 00 10 00 00     add         eax,1000h
  00404DE7: 8D 48 F0           lea         ecx,[eax-10h]
  00404DEA: 3B CA              cmp         ecx,edx
  00404DEC: 76 C7              jbe         00404DB5
  00404DEE: 8B 45 FC           mov         eax,dword ptr [ebp-4]
  00404DF1: 8D 4F 0C           lea         ecx,[edi+0Ch]
  00404DF4: 05 F8 01 00 00     add         eax,1F8h
  00404DF9: 6A 01              push        1
  00404DFB: 5F                 pop         edi
  00404DFC: 89 48 04           mov         dword ptr [eax+4],ecx
  00404DFF: 89 41 08           mov         dword ptr [ecx+8],eax
  00404E02: 8D 4A 0C           lea         ecx,[edx+0Ch]
  00404E05: 89 48 08           mov         dword ptr [eax+8],ecx
  00404E08: 89 41 04           mov         dword ptr [ecx+4],eax
  00404E0B: 83 64 9E 44 00     and         dword ptr [esi+ebx*4+44h],0
  00404E10: 89 BC 9E C4 00 00  mov         dword ptr [esi+ebx*4+000000C4h],edi
            00
  00404E17: 8A 46 43           mov         al,byte ptr [esi+43h]
  00404E1A: 8A C8              mov         cl,al
  00404E1C: FE C1              inc         cl
  00404E1E: 84 C0              test        al,al
  00404E20: 8B 45 08           mov         eax,dword ptr [ebp+8]
  00404E23: 88 4E 43           mov         byte ptr [esi+43h],cl
  00404E26: 75 03              jne         00404E2B
  00404E28: 09 78 04           or          dword ptr [eax+4],edi
  00404E2B: BA 00 00 00 80     mov         edx,80000000h
  00404E30: 8B CB              mov         ecx,ebx
  00404E32: D3 EA              shr         edx,cl
  00404E34: F7 D2              not         edx
  00404E36: 21 50 08           and         dword ptr [eax+8],edx
  00404E39: 8B C3              mov         eax,ebx
  00404E3B: 5F                 pop         edi
  00404E3C: 5E                 pop         esi
  00404E3D: 5B                 pop         ebx
  00404E3E: C9                 leave
  00404E3F: C3                 ret
  00404E40: 55                 push        ebp
  00404E41: 8B EC              mov         ebp,esp
  00404E43: 83 EC 0C           sub         esp,0Ch
  00404E46: 8B 4D 08           mov         ecx,dword ptr [ebp+8]
  00404E49: 8B 45 10           mov         eax,dword ptr [ebp+10h]
  00404E4C: 53                 push        ebx
  00404E4D: 56                 push        esi
  00404E4E: 57                 push        edi
  00404E4F: 8B 7D 0C           mov         edi,dword ptr [ebp+0Ch]
  00404E52: 8B D7              mov         edx,edi
  00404E54: 8D 70 17           lea         esi,[eax+17h]
  00404E57: 2B 51 0C           sub         edx,dword ptr [ecx+0Ch]
  00404E5A: 8B 41 10           mov         eax,dword ptr [ecx+10h]
  00404E5D: 83 E6 F0           and         esi,0FFFFFFF0h
  00404E60: C1 EA 0F           shr         edx,0Fh
  00404E63: 8B CA              mov         ecx,edx
  00404E65: 69 C9 04 02 00 00  imul        ecx,ecx,204h
  00404E6B: 8D 8C 01 44 01 00  lea         ecx,[ecx+eax+00000144h]
            00
  00404E72: 89 4D F4           mov         dword ptr [ebp-0Ch],ecx
  00404E75: 8B 4F FC           mov         ecx,dword ptr [edi-4]
  00404E78: 49                 dec         ecx
  00404E79: 3B F1              cmp         esi,ecx
  00404E7B: 89 4D 10           mov         dword ptr [ebp+10h],ecx
  00404E7E: 8B 5C 39 FC        mov         ebx,dword ptr [ecx+edi-4]
  00404E82: 8D 7C 39 FC        lea         edi,[ecx+edi-4]
  00404E86: 89 5D FC           mov         dword ptr [ebp-4],ebx
  00404E89: 0F 8E 5F 01 00 00  jle         00404FEE
  00404E8F: F6 C3 01           test        bl,1
  00404E92: 0F 85 4F 01 00 00  jne         00404FE7
  00404E98: 03 D9              add         ebx,ecx
  00404E9A: 3B F3              cmp         esi,ebx
  00404E9C: 0F 8F 45 01 00 00  jg          00404FE7
  00404EA2: 8B 4D FC           mov         ecx,dword ptr [ebp-4]
  00404EA5: C1 F9 04           sar         ecx,4
  00404EA8: 49                 dec         ecx
  00404EA9: 83 F9 3F           cmp         ecx,3Fh
  00404EAC: 89 4D F8           mov         dword ptr [ebp-8],ecx
  00404EAF: 76 06              jbe         00404EB7
  00404EB1: 6A 3F              push        3Fh
  00404EB3: 59                 pop         ecx
  00404EB4: 89 4D F8           mov         dword ptr [ebp-8],ecx
  00404EB7: 8B 5F 04           mov         ebx,dword ptr [edi+4]
  00404EBA: 3B 5F 08           cmp         ebx,dword ptr [edi+8]
  00404EBD: 75 48              jne         00404F07
  00404EBF: 83 F9 20           cmp         ecx,20h
  00404EC2: 73 1F              jae         00404EE3
  00404EC4: BB 00 00 00 80     mov         ebx,80000000h
  00404EC9: D3 EB              shr         ebx,cl
  00404ECB: 8B 4D F8           mov         ecx,dword ptr [ebp-8]
  00404ECE: 8D 4C 01 04        lea         ecx,[ecx+eax+4]
  00404ED2: F7 D3              not         ebx
  00404ED4: 21 5C 90 44        and         dword ptr [eax+edx*4+44h],ebx
  00404ED8: FE 09              dec         byte ptr [ecx]
  00404EDA: 75 2B              jne         00404F07
  00404EDC: 8B 4D 08           mov         ecx,dword ptr [ebp+8]
  00404EDF: 21 19              and         dword ptr [ecx],ebx
  00404EE1: EB 24              jmp         00404F07
  00404EE3: 83 C1 E0           add         ecx,0FFFFFFE0h
  00404EE6: BB 00 00 00 80     mov         ebx,80000000h
  00404EEB: D3 EB              shr         ebx,cl
  00404EED: 8B 4D F8           mov         ecx,dword ptr [ebp-8]
  00404EF0: 8D 4C 01 04        lea         ecx,[ecx+eax+4]
  00404EF4: F7 D3              not         ebx
  00404EF6: 21 9C 90 C4 00 00  and         dword ptr [eax+edx*4+000000C4h],ebx
            00
  00404EFD: FE 09              dec         byte ptr [ecx]
  00404EFF: 75 06              jne         00404F07
  00404F01: 8B 4D 08           mov         ecx,dword ptr [ebp+8]
  00404F04: 21 59 04           and         dword ptr [ecx+4],ebx
  00404F07: 8B 4F 08           mov         ecx,dword ptr [edi+8]
  00404F0A: 8B 5F 04           mov         ebx,dword ptr [edi+4]
  00404F0D: 89 59 04           mov         dword ptr [ecx+4],ebx
  00404F10: 8B 4F 04           mov         ecx,dword ptr [edi+4]
  00404F13: 8B 7F 08           mov         edi,dword ptr [edi+8]
  00404F16: 89 79 08           mov         dword ptr [ecx+8],edi
  00404F19: 8B 4D 10           mov         ecx,dword ptr [ebp+10h]
  00404F1C: 2B CE              sub         ecx,esi
  00404F1E: 01 4D FC           add         dword ptr [ebp-4],ecx
  00404F21: 83 7D FC 00        cmp         dword ptr [ebp-4],0
  00404F25: 0F 8E AA 00 00 00  jle         00404FD5
  00404F2B: 8B 7D FC           mov         edi,dword ptr [ebp-4]
  00404F2E: 8B 4D 0C           mov         ecx,dword ptr [ebp+0Ch]
  00404F31: C1 FF 04           sar         edi,4
  00404F34: 4F                 dec         edi
  00404F35: 8D 4C 31 FC        lea         ecx,[ecx+esi-4]
  00404F39: 83 FF 3F           cmp         edi,3Fh
  00404F3C: 76 03              jbe         00404F41
  00404F3E: 6A 3F              push        3Fh
  00404F40: 5F                 pop         edi
  00404F41: 8B 5D F4           mov         ebx,dword ptr [ebp-0Ch]
  00404F44: 8D 1C FB           lea         ebx,[ebx+edi*8]
  00404F47: 89 5D 10           mov         dword ptr [ebp+10h],ebx
  00404F4A: 8B 5B 04           mov         ebx,dword ptr [ebx+4]
  00404F4D: 89 59 04           mov         dword ptr [ecx+4],ebx
  00404F50: 8B 5D 10           mov         ebx,dword ptr [ebp+10h]
  00404F53: 89 59 08           mov         dword ptr [ecx+8],ebx
  00404F56: 89 4B 04           mov         dword ptr [ebx+4],ecx
  00404F59: 8B 59 04           mov         ebx,dword ptr [ecx+4]
  00404F5C: 89 4B 08           mov         dword ptr [ebx+8],ecx
  00404F5F: 8B 59 04           mov         ebx,dword ptr [ecx+4]
  00404F62: 3B 59 08           cmp         ebx,dword ptr [ecx+8]
  00404F65: 75 5C              jne         00404FC3
  00404F67: 8A 4C 07 04        mov         cl,byte ptr [edi+eax+4]
  00404F6B: 83 FF 20           cmp         edi,20h
  00404F6E: 88 4D 13           mov         byte ptr [ebp+13h],cl
  00404F71: FE C1              inc         cl
  00404F73: 88 4C 07 04        mov         byte ptr [edi+eax+4],cl
  00404F77: 73 21              jae         00404F9A
  00404F79: 80 7D 13 00        cmp         byte ptr [ebp+13h],0
  00404F7D: 75 0E              jne         00404F8D
  00404F7F: BB 00 00 00 80     mov         ebx,80000000h
  00404F84: 8B CF              mov         ecx,edi
  00404F86: D3 EB              shr         ebx,cl
  00404F88: 8B 4D 08           mov         ecx,dword ptr [ebp+8]
  00404F8B: 09 19              or          dword ptr [ecx],ebx
  00404F8D: 8D 44 90 44        lea         eax,[eax+edx*4+44h]
  00404F91: BA 00 00 00 80     mov         edx,80000000h
  00404F96: 8B CF              mov         ecx,edi
  00404F98: EB 25              jmp         00404FBF
  00404F9A: 80 7D 13 00        cmp         byte ptr [ebp+13h],0
  00404F9E: 75 10              jne         00404FB0
  00404FA0: 8D 4F E0           lea         ecx,[edi-20h]
  00404FA3: BB 00 00 00 80     mov         ebx,80000000h
  00404FA8: D3 EB              shr         ebx,cl
  00404FAA: 8B 4D 08           mov         ecx,dword ptr [ebp+8]
  00404FAD: 09 59 04           or          dword ptr [ecx+4],ebx
  00404FB0: 8D 84 90 C4 00 00  lea         eax,[eax+edx*4+000000C4h]
            00
  00404FB7: 8D 4F E0           lea         ecx,[edi-20h]
  00404FBA: BA 00 00 00 80     mov         edx,80000000h
  00404FBF: D3 EA              shr         edx,cl
  00404FC1: 09 10              or          dword ptr [eax],edx
  00404FC3: 8B 55 0C           mov         edx,dword ptr [ebp+0Ch]
  00404FC6: 8B 4D FC           mov         ecx,dword ptr [ebp-4]
  00404FC9: 8D 44 32 FC        lea         eax,[edx+esi-4]
  00404FCD: 89 08              mov         dword ptr [eax],ecx
  00404FCF: 89 4C 01 FC        mov         dword ptr [ecx+eax-4],ecx
  00404FD3: EB 03              jmp         00404FD8
  00404FD5: 8B 55 0C           mov         edx,dword ptr [ebp+0Ch]
  00404FD8: 8D 46 01           lea         eax,[esi+1]
  00404FDB: 89 42 FC           mov         dword ptr [edx-4],eax
  00404FDE: 89 44 32 F8        mov         dword ptr [edx+esi-8],eax
  00404FE2: E9 47 01 00 00     jmp         0040512E
  00404FE7: 33 C0              xor         eax,eax
  00404FE9: E9 43 01 00 00     jmp         00405131
  00404FEE: 0F 8D 3A 01 00 00  jge         0040512E
  00404FF4: 8B 5D 0C           mov         ebx,dword ptr [ebp+0Ch]
  00404FF7: 29 75 10           sub         dword ptr [ebp+10h],esi
  00404FFA: 8D 4E 01           lea         ecx,[esi+1]
  00404FFD: 89 4B FC           mov         dword ptr [ebx-4],ecx
  00405000: 8D 5C 33 FC        lea         ebx,[ebx+esi-4]
  00405004: 8B 75 10           mov         esi,dword ptr [ebp+10h]
  00405007: 89 5D 0C           mov         dword ptr [ebp+0Ch],ebx
  0040500A: C1 FE 04           sar         esi,4
  0040500D: 4E                 dec         esi
  0040500E: 89 4B FC           mov         dword ptr [ebx-4],ecx
  00405011: 83 FE 3F           cmp         esi,3Fh
  00405014: 76 03              jbe         00405019
  00405016: 6A 3F              push        3Fh
  00405018: 5E                 pop         esi
  00405019: F6 45 FC 01        test        byte ptr [ebp-4],1
  0040501D: 0F 85 85 00 00 00  jne         004050A8
  00405023: 8B 75 FC           mov         esi,dword ptr [ebp-4]
  00405026: C1 FE 04           sar         esi,4
  00405029: 4E                 dec         esi
  0040502A: 83 FE 3F           cmp         esi,3Fh
  0040502D: 76 03              jbe         00405032
  0040502F: 6A 3F              push        3Fh
  00405031: 5E                 pop         esi
  00405032: 8B 4F 04           mov         ecx,dword ptr [edi+4]
  00405035: 3B 4F 08           cmp         ecx,dword ptr [edi+8]
  00405038: 75 47              jne         00405081
  0040503A: 83 FE 20           cmp         esi,20h
  0040503D: 73 1E              jae         0040505D
  0040503F: BB 00 00 00 80     mov         ebx,80000000h
  00405044: 8B CE              mov         ecx,esi
  00405046: D3 EB              shr         ebx,cl
  00405048: 8D 74 06 04        lea         esi,[esi+eax+4]
  0040504C: F7 D3              not         ebx
  0040504E: 21 5C 90 44        and         dword ptr [eax+edx*4+44h],ebx
  00405052: FE 0E              dec         byte ptr [esi]
  00405054: 75 28              jne         0040507E
  00405056: 8B 4D 08           mov         ecx,dword ptr [ebp+8]
  00405059: 21 19              and         dword ptr [ecx],ebx
  0040505B: EB 21              jmp         0040507E
  0040505D: 8D 4E E0           lea         ecx,[esi-20h]
  00405060: BB 00 00 00 80     mov         ebx,80000000h
  00405065: D3 EB              shr         ebx,cl
  00405067: 8D 4C 06 04        lea         ecx,[esi+eax+4]
  0040506B: F7 D3              not         ebx
  0040506D: 21 9C 90 C4 00 00  and         dword ptr [eax+edx*4+000000C4h],ebx
            00
  00405074: FE 09              dec         byte ptr [ecx]
  00405076: 75 06              jne         0040507E
  00405078: 8B 4D 08           mov         ecx,dword ptr [ebp+8]
  0040507B: 21 59 04           and         dword ptr [ecx+4],ebx
  0040507E: 8B 5D 0C           mov         ebx,dword ptr [ebp+0Ch]
  00405081: 8B 4F 08           mov         ecx,dword ptr [edi+8]
  00405084: 8B 77 04           mov         esi,dword ptr [edi+4]
  00405087: 89 71 04           mov         dword ptr [ecx+4],esi
  0040508A: 8B 4F 04           mov         ecx,dword ptr [edi+4]
  0040508D: 8B 77 08           mov         esi,dword ptr [edi+8]
  00405090: 89 71 08           mov         dword ptr [ecx+8],esi
  00405093: 8B 75 10           mov         esi,dword ptr [ebp+10h]
  00405096: 03 75 FC           add         esi,dword ptr [ebp-4]
  00405099: 89 75 10           mov         dword ptr [ebp+10h],esi
  0040509C: C1 FE 04           sar         esi,4
  0040509F: 4E                 dec         esi
  004050A0: 83 FE 3F           cmp         esi,3Fh
  004050A3: 76 03              jbe         004050A8
  004050A5: 6A 3F              push        3Fh
  004050A7: 5E                 pop         esi
  004050A8: 8B 4D F4           mov         ecx,dword ptr [ebp-0Ch]
  004050AB: 8B 7C F1 04        mov         edi,dword ptr [ecx+esi*8+4]
  004050AF: 8D 0C F1           lea         ecx,[ecx+esi*8]
  004050B2: 89 7B 04           mov         dword ptr [ebx+4],edi
  004050B5: 89 4B 08           mov         dword ptr [ebx+8],ecx
  004050B8: 89 59 04           mov         dword ptr [ecx+4],ebx
  004050BB: 8B 4B 04           mov         ecx,dword ptr [ebx+4]
  004050BE: 89 59 08           mov         dword ptr [ecx+8],ebx
  004050C1: 8B 4B 04           mov         ecx,dword ptr [ebx+4]
  004050C4: 3B 4B 08           cmp         ecx,dword ptr [ebx+8]
  004050C7: 75 5C              jne         00405125
  004050C9: 8A 4C 06 04        mov         cl,byte ptr [esi+eax+4]
  004050CD: 83 FE 20           cmp         esi,20h
  004050D0: 88 4D 0F           mov         byte ptr [ebp+0Fh],cl
  004050D3: FE C1              inc         cl
  004050D5: 88 4C 06 04        mov         byte ptr [esi+eax+4],cl
  004050D9: 73 21              jae         004050FC
  004050DB: 80 7D 0F 00        cmp         byte ptr [ebp+0Fh],0
  004050DF: 75 0E              jne         004050EF
  004050E1: BF 00 00 00 80     mov         edi,80000000h
  004050E6: 8B CE              mov         ecx,esi
  004050E8: D3 EF              shr         edi,cl
  004050EA: 8B 4D 08           mov         ecx,dword ptr [ebp+8]
  004050ED: 09 39              or          dword ptr [ecx],edi
  004050EF: 8D 44 90 44        lea         eax,[eax+edx*4+44h]
  004050F3: BA 00 00 00 80     mov         edx,80000000h
  004050F8: 8B CE              mov         ecx,esi
  004050FA: EB 25              jmp         00405121
  004050FC: 80 7D 0F 00        cmp         byte ptr [ebp+0Fh],0
  00405100: 75 10              jne         00405112
  00405102: 8D 4E E0           lea         ecx,[esi-20h]
  00405105: BF 00 00 00 80     mov         edi,80000000h
  0040510A: D3 EF              shr         edi,cl
  0040510C: 8B 4D 08           mov         ecx,dword ptr [ebp+8]
  0040510F: 09 79 04           or          dword ptr [ecx+4],edi
  00405112: 8D 84 90 C4 00 00  lea         eax,[eax+edx*4+000000C4h]
            00
  00405119: 8D 4E E0           lea         ecx,[esi-20h]
  0040511C: BA 00 00 00 80     mov         edx,80000000h
  00405121: D3 EA              shr         edx,cl
  00405123: 09 10              or          dword ptr [eax],edx
  00405125: 8B 45 10           mov         eax,dword ptr [ebp+10h]
  00405128: 89 03              mov         dword ptr [ebx],eax
  0040512A: 89 44 18 FC        mov         dword ptr [eax+ebx-4],eax
  0040512E: 6A 01              push        1
  00405130: 58                 pop         eax
  00405131: 5F                 pop         edi
  00405132: 5E                 pop         esi
  00405133: 5B                 pop         ebx
  00405134: C9                 leave
  00405135: C3                 ret
  00405136: 83 3D D0 88 40 00  cmp         dword ptr ds:[004088D0h],0FFFFFFFFh
            FF
  0040513D: 53                 push        ebx
  0040513E: 55                 push        ebp
  0040513F: 56                 push        esi
  00405140: 57                 push        edi
  00405141: 75 07              jne         0040514A
  00405143: BE C0 88 40 00     mov         esi,4088C0h
  00405148: EB 1D              jmp         00405167
  0040514A: 68 20 20 00 00     push        2020h
  0040514F: 6A 00              push        0
  00405151: FF 35 08 AD 40 00  push        dword ptr ds:[0040AD08h]
  00405157: FF 15 6C 70 40 00  call        dword ptr ds:[0040706Ch]
  0040515D: 8B F0              mov         esi,eax
  0040515F: 85 F6              test        esi,esi
  00405161: 0F 84 0C 01 00 00  je          00405273
  00405167: 8B 2D 8C 70 40 00  mov         ebp,dword ptr ds:[0040708Ch]
  0040516D: 6A 04              push        4
  0040516F: 68 00 20 00 00     push        2000h
  00405174: 68 00 00 40 00     push        400000h
  00405179: 6A 00              push        0
  0040517B: FF D5              call        ebp
  0040517D: 8B F8              mov         edi,eax
  0040517F: 85 FF              test        edi,edi
  00405181: 0F 84 D5 00 00 00  je          0040525C
  00405187: 6A 04              push        4
  00405189: BB 00 00 01 00     mov         ebx,10000h
  0040518E: 68 00 10 00 00     push        1000h
  00405193: 53                 push        ebx
  00405194: 57                 push        edi
  00405195: FF D5              call        ebp
  00405197: 85 C0              test        eax,eax
  00405199: 0F 84 AF 00 00 00  je          0040524E
  0040519F: B8 C0 88 40 00     mov         eax,4088C0h
  004051A4: 3B F0              cmp         esi,eax
  004051A6: 75 1E              jne         004051C6
  004051A8: 83 3D C0 88 40 00  cmp         dword ptr ds:[004088C0h],0
            00
  004051AF: 75 05              jne         004051B6
  004051B1: A3 C0 88 40 00     mov         dword ptr ds:[004088C0h],eax
  004051B6: 83 3D C4 88 40 00  cmp         dword ptr ds:[004088C4h],0
            00
  004051BD: 75 1C              jne         004051DB
  004051BF: A3 C4 88 40 00     mov         dword ptr ds:[004088C4h],eax
  004051C4: EB 15              jmp         004051DB
  004051C6: 89 06              mov         dword ptr [esi],eax
  004051C8: A1 C4 88 40 00     mov         eax,dword ptr ds:[004088C4h]
  004051CD: 89 46 04           mov         dword ptr [esi+4],eax
  004051D0: 89 35 C4 88 40 00  mov         dword ptr ds:[004088C4h],esi
  004051D6: 8B 46 04           mov         eax,dword ptr [esi+4]
  004051D9: 89 30              mov         dword ptr [eax],esi
  004051DB: 8D 87 00 00 40 00  lea         eax,[edi+00400000h]
  004051E1: 8D 8E 98 00 00 00  lea         ecx,[esi+00000098h]
  004051E7: 89 46 14           mov         dword ptr [esi+14h],eax
  004051EA: 8D 46 18           lea         eax,[esi+18h]
  004051ED: 89 4E 0C           mov         dword ptr [esi+0Ch],ecx
  004051F0: 89 7E 10           mov         dword ptr [esi+10h],edi
  004051F3: 89 46 08           mov         dword ptr [esi+8],eax
  004051F6: 33 ED              xor         ebp,ebp
  004051F8: B9 F1 00 00 00     mov         ecx,0F1h
  004051FD: 33 D2              xor         edx,edx
  004051FF: 83 FD 10           cmp         ebp,10h
  00405202: 0F 9D C2           setge       dl
  00405205: 4A                 dec         edx
  00405206: 23 D1              and         edx,ecx
  00405208: 4A                 dec         edx
  00405209: 45                 inc         ebp
  0040520A: 89 10              mov         dword ptr [eax],edx
  0040520C: 89 48 04           mov         dword ptr [eax+4],ecx
  0040520F: 83 C0 08           add         eax,8
  00405212: 81 FD 00 04 00 00  cmp         ebp,400h
  00405218: 7C E3              jl          004051FD
  0040521A: 53                 push        ebx
  0040521B: 6A 00              push        0
  0040521D: 57                 push        edi
  0040521E: E8 BD 07 00 00     call        004059E0
  00405223: 83 C4 0C           add         esp,0Ch
  00405226: 8B 46 10           mov         eax,dword ptr [esi+10h]
  00405229: 03 C3              add         eax,ebx
  0040522B: 3B F8              cmp         edi,eax
  0040522D: 73 1B              jae         0040524A
  0040522F: 80 8F F8 00 00 00  or          byte ptr [edi+000000F8h],0FFh
            FF
  00405236: 8D 47 08           lea         eax,[edi+8]
  00405239: 89 07              mov         dword ptr [edi],eax
  0040523B: C7 47 04 F0 00 00  mov         dword ptr [edi+4],0F0h
            00
  00405242: 81 C7 00 10 00 00  add         edi,1000h
  00405248: EB DC              jmp         00405226
  0040524A: 8B C6              mov         eax,esi
  0040524C: EB 27              jmp         00405275
  0040524E: 68 00 80 00 00     push        8000h
  00405253: 6A 00              push        0
  00405255: 57                 push        edi
  00405256: FF 15 5C 70 40 00  call        dword ptr ds:[0040705Ch]
  0040525C: 81 FE C0 88 40 00  cmp         esi,4088C0h
  00405262: 74 0F              je          00405273
  00405264: 56                 push        esi
  00405265: 6A 00              push        0
  00405267: FF 35 08 AD 40 00  push        dword ptr ds:[0040AD08h]
  0040526D: FF 15 60 70 40 00  call        dword ptr ds:[00407060h]
  00405273: 33 C0              xor         eax,eax
  00405275: 5F                 pop         edi
  00405276: 5E                 pop         esi
  00405277: 5D                 pop         ebp
  00405278: 5B                 pop         ebx
  00405279: C3                 ret
  0040527A: 56                 push        esi
  0040527B: 8B 74 24 08        mov         esi,dword ptr [esp+8]
  0040527F: 68 00 80 00 00     push        8000h
  00405284: 6A 00              push        0
  00405286: FF 76 10           push        dword ptr [esi+10h]
  00405289: FF 15 5C 70 40 00  call        dword ptr ds:[0040705Ch]
  0040528F: 39 35 E0 A8 40 00  cmp         dword ptr ds:[0040A8E0h],esi
  00405295: 75 08              jne         0040529F
  00405297: 8B 46 04           mov         eax,dword ptr [esi+4]
  0040529A: A3 E0 A8 40 00     mov         dword ptr ds:[0040A8E0h],eax
  0040529F: 81 FE C0 88 40 00  cmp         esi,4088C0h
  004052A5: 74 20              je          004052C7
  004052A7: 8B 46 04           mov         eax,dword ptr [esi+4]
  004052AA: 8B 0E              mov         ecx,dword ptr [esi]
  004052AC: 56                 push        esi
  004052AD: 6A 00              push        0
  004052AF: 89 08              mov         dword ptr [eax],ecx
  004052B1: 8B 06              mov         eax,dword ptr [esi]
  004052B3: 8B 4E 04           mov         ecx,dword ptr [esi+4]
  004052B6: 89 48 04           mov         dword ptr [eax+4],ecx
  004052B9: FF 35 08 AD 40 00  push        dword ptr ds:[0040AD08h]
  004052BF: FF 15 60 70 40 00  call        dword ptr ds:[00407060h]
  004052C5: 5E                 pop         esi
  004052C6: C3                 ret
  004052C7: 83 0D D0 88 40 00  or          dword ptr ds:[004088D0h],0FFFFFFFFh
            FF
  004052CE: 5E                 pop         esi
  004052CF: C3                 ret
  004052D0: 55                 push        ebp
  004052D1: 8B EC              mov         ebp,esp
  004052D3: 51                 push        ecx
  004052D4: 53                 push        ebx
  004052D5: 56                 push        esi
  004052D6: 8B 35 C4 88 40 00  mov         esi,dword ptr ds:[004088C4h]
  004052DC: 57                 push        edi
  004052DD: 83 7E 10 FF        cmp         dword ptr [esi+10h],0FFFFFFFFh
  004052E1: 0F 84 94 00 00 00  je          0040537B
  004052E7: 83 65 FC 00        and         dword ptr [ebp-4],0
  004052EB: 8D BE 10 20 00 00  lea         edi,[esi+00002010h]
  004052F1: BB 00 F0 3F 00     mov         ebx,3FF000h
  004052F6: 81 3F F0 00 00 00  cmp         dword ptr [edi],0F0h
  004052FC: 75 39              jne         00405337
  004052FE: 8B C3              mov         eax,ebx
  00405300: 68 00 40 00 00     push        4000h
  00405305: 03 46 10           add         eax,dword ptr [esi+10h]
  00405308: 68 00 10 00 00     push        1000h
  0040530D: 50                 push        eax
  0040530E: FF 15 5C 70 40 00  call        dword ptr ds:[0040705Ch]
  00405314: 85 C0              test        eax,eax
  00405316: 74 1F              je          00405337
  00405318: 83 0F FF           or          dword ptr [edi],0FFFFFFFFh
  0040531B: FF 0D 78 AA 40 00  dec         dword ptr ds:[0040AA78h]
  00405321: 8B 46 0C           mov         eax,dword ptr [esi+0Ch]
  00405324: 85 C0              test        eax,eax
  00405326: 74 04              je          0040532C
  00405328: 3B C7              cmp         eax,edi
  0040532A: 76 03              jbe         0040532F
  0040532C: 89 7E 0C           mov         dword ptr [esi+0Ch],edi
  0040532F: FF 45 FC           inc         dword ptr [ebp-4]
  00405332: FF 4D 08           dec         dword ptr [ebp+8]
  00405335: 74 0D              je          00405344
  00405337: 81 EB 00 10 00 00  sub         ebx,1000h
  0040533D: 83 EF 08           sub         edi,8
  00405340: 85 DB              test        ebx,ebx
  00405342: 7D B2              jge         004052F6
  00405344: 83 7D FC 00        cmp         dword ptr [ebp-4],0
  00405348: 8B CE              mov         ecx,esi
  0040534A: 8B 76 04           mov         esi,dword ptr [esi+4]
  0040534D: 74 2C              je          0040537B
  0040534F: 83 79 18 FF        cmp         dword ptr [ecx+18h],0FFFFFFFFh
  00405353: 75 26              jne         0040537B
  00405355: 6A 01              push        1
  00405357: 8D 41 20           lea         eax,[ecx+20h]
  0040535A: 5A                 pop         edx
  0040535B: 83 38 FF           cmp         dword ptr [eax],0FFFFFFFFh
  0040535E: 75 0C              jne         0040536C
  00405360: 42                 inc         edx
  00405361: 83 C0 08           add         eax,8
  00405364: 81 FA 00 04 00 00  cmp         edx,400h
  0040536A: 7C EF              jl          0040535B
  0040536C: 81 FA 00 04 00 00  cmp         edx,400h
  00405372: 75 07              jne         0040537B
  00405374: 51                 push        ecx
  00405375: E8 00 FF FF FF     call        0040527A
  0040537A: 59                 pop         ecx
  0040537B: 3B 35 C4 88 40 00  cmp         esi,dword ptr ds:[004088C4h]
  00405381: 74 0A              je          0040538D
  00405383: 83 7D 08 00        cmp         dword ptr [ebp+8],0
  00405387: 0F 8F 50 FF FF FF  jg          004052DD
  0040538D: 5F                 pop         edi
  0040538E: 5E                 pop         esi
  0040538F: 5B                 pop         ebx
  00405390: C9                 leave
  00405391: C3                 ret
  00405392: 8B 44 24 04        mov         eax,dword ptr [esp+4]
  00405396: BA C0 88 40 00     mov         edx,4088C0h
  0040539B: 56                 push        esi
  0040539C: 8B CA              mov         ecx,edx
  0040539E: 3B 41 10           cmp         eax,dword ptr [ecx+10h]
  004053A1: 76 05              jbe         004053A8
  004053A3: 3B 41 14           cmp         eax,dword ptr [ecx+14h]
  004053A6: 72 08              jb          004053B0
  004053A8: 8B 09              mov         ecx,dword ptr [ecx]
  004053AA: 3B CA              cmp         ecx,edx
  004053AC: 74 37              je          004053E5
  004053AE: EB EE              jmp         0040539E
  004053B0: A8 0F              test        al,0Fh
  004053B2: 75 31              jne         004053E5
  004053B4: 8B F0              mov         esi,eax
  004053B6: BA 00 01 00 00     mov         edx,100h
  004053BB: 81 E6 FF 0F 00 00  and         esi,0FFFh
  004053C1: 3B F2              cmp         esi,edx
  004053C3: 72 20              jb          004053E5
  004053C5: 8B 74 24 0C        mov         esi,dword ptr [esp+0Ch]
  004053C9: 89 0E              mov         dword ptr [esi],ecx
  004053CB: 8B 74 24 10        mov         esi,dword ptr [esp+10h]
  004053CF: 8B C8              mov         ecx,eax
  004053D1: 66 81 E1 00 F0     and         cx,0F000h
  004053D6: 2B C1              sub         eax,ecx
  004053D8: 89 0E              mov         dword ptr [esi],ecx
  004053DA: 2B C2              sub         eax,edx
  004053DC: 5E                 pop         esi
  004053DD: C1 F8 04           sar         eax,4
  004053E0: 8D 44 08 08        lea         eax,[eax+ecx+8]
  004053E4: C3                 ret
  004053E5: 33 C0              xor         eax,eax
  004053E7: 5E                 pop         esi
  004053E8: C3                 ret
  004053E9: 8B 44 24 04        mov         eax,dword ptr [esp+4]
  004053ED: 8B 4C 24 08        mov         ecx,dword ptr [esp+8]
  004053F1: 2B 48 10           sub         ecx,dword ptr [eax+10h]
  004053F4: C1 F9 0C           sar         ecx,0Ch
  004053F7: 8D 44 C8 18        lea         eax,[eax+ecx*8+18h]
  004053FB: 8B 4C 24 0C        mov         ecx,dword ptr [esp+0Ch]
  004053FF: 0F B6 11           movzx       edx,byte ptr [ecx]
  00405402: 01 10              add         dword ptr [eax],edx
  00405404: 80 21 00           and         byte ptr [ecx],0
  00405407: 81 38 F0 00 00 00  cmp         dword ptr [eax],0F0h
  0040540D: C7 40 04 F1 00 00  mov         dword ptr [eax+4],0F1h
            00
  00405414: 75 17              jne         0040542D
  00405416: FF 05 78 AA 40 00  inc         dword ptr ds:[0040AA78h]
  0040541C: 83 3D 78 AA 40 00  cmp         dword ptr ds:[0040AA78h],20h
            20
  00405423: 75 08              jne         0040542D
  00405425: 6A 10              push        10h
  00405427: E8 A4 FE FF FF     call        004052D0
  0040542C: 59                 pop         ecx
  0040542D: C3                 ret
  0040542E: 55                 push        ebp
  0040542F: 8B EC              mov         ebp,esp
  00405431: 51                 push        ecx
  00405432: 51                 push        ecx
  00405433: 53                 push        ebx
  00405434: 56                 push        esi
  00405435: 8B 35 E0 A8 40 00  mov         esi,dword ptr ds:[0040A8E0h]
  0040543B: 57                 push        edi
  0040543C: 8B 56 10           mov         edx,dword ptr [esi+10h]
  0040543F: 83 FA FF           cmp         edx,0FFFFFFFFh
  00405442: 0F 84 9F 00 00 00  je          004054E7
  00405448: 8B 7E 08           mov         edi,dword ptr [esi+8]
  0040544B: 8D 8E 18 20 00 00  lea         ecx,[esi+00002018h]
  00405451: 8B C7              mov         eax,edi
  00405453: 2B C6              sub         eax,esi
  00405455: 83 E8 18           sub         eax,18h
  00405458: C1 F8 03           sar         eax,3
  0040545B: C1 E0 0C           shl         eax,0Ch
  0040545E: 03 C2              add         eax,edx
  00405460: 3B F9              cmp         edi,ecx
  00405462: 89 45 FC           mov         dword ptr [ebp-4],eax
  00405465: 73 3A              jae         004054A1
  00405467: 8B 0F              mov         ecx,dword ptr [edi]
  00405469: 8B 5D 08           mov         ebx,dword ptr [ebp+8]
  0040546C: 3B CB              cmp         ecx,ebx
  0040546E: 7C 1A              jl          0040548A
  00405470: 39 5F 04           cmp         dword ptr [edi+4],ebx
  00405473: 76 15              jbe         0040548A
  00405475: 53                 push        ebx
  00405476: 51                 push        ecx
  00405477: 50                 push        eax
  00405478: E8 B9 01 00 00     call        00405636
  0040547D: 83 C4 0C           add         esp,0Ch
  00405480: 85 C0              test        eax,eax
  00405482: 75 75              jne         004054F9
  00405484: 8B 45 FC           mov         eax,dword ptr [ebp-4]
  00405487: 89 5F 04           mov         dword ptr [edi+4],ebx
  0040548A: 83 C7 08           add         edi,8
  0040548D: 8D 8E 18 20 00 00  lea         ecx,[esi+00002018h]
  00405493: 05 00 10 00 00     add         eax,1000h
  00405498: 3B F9              cmp         edi,ecx
  0040549A: 89 45 FC           mov         dword ptr [ebp-4],eax
  0040549D: 72 C8              jb          00405467
  0040549F: EB 03              jmp         004054A4
  004054A1: 8B 5D 08           mov         ebx,dword ptr [ebp+8]
  004054A4: 8B 46 08           mov         eax,dword ptr [esi+8]
  004054A7: 8B 4E 10           mov         ecx,dword ptr [esi+10h]
  004054AA: 8D 7E 18           lea         edi,[esi+18h]
  004054AD: 89 45 F8           mov         dword ptr [ebp-8],eax
  004054B0: 3B F8              cmp         edi,eax
  004054B2: 89 4D FC           mov         dword ptr [ebp-4],ecx
  004054B5: 73 33              jae         004054EA
  004054B7: 8B 07              mov         eax,dword ptr [edi]
  004054B9: 3B C3              cmp         eax,ebx
  004054BB: 7C 19              jl          004054D6
  004054BD: 39 5F 04           cmp         dword ptr [edi+4],ebx
  004054C0: 76 14              jbe         004054D6
  004054C2: 53                 push        ebx
  004054C3: 50                 push        eax
  004054C4: FF 75 FC           push        dword ptr [ebp-4]
  004054C7: E8 6A 01 00 00     call        00405636
  004054CC: 83 C4 0C           add         esp,0Ch
  004054CF: 85 C0              test        eax,eax
  004054D1: 75 26              jne         004054F9
  004054D3: 89 5F 04           mov         dword ptr [edi+4],ebx
  004054D6: 81 45 FC 00 10 00  add         dword ptr [ebp-4],1000h
            00
  004054DD: 83 C7 08           add         edi,8
  004054E0: 3B 7D F8           cmp         edi,dword ptr [ebp-8]
  004054E3: 72 D2              jb          004054B7
  004054E5: EB 03              jmp         004054EA
  004054E7: 8B 5D 08           mov         ebx,dword ptr [ebp+8]
  004054EA: 8B 36              mov         esi,dword ptr [esi]
  004054EC: 3B 35 E0 A8 40 00  cmp         esi,dword ptr ds:[0040A8E0h]
  004054F2: 74 15              je          00405509
  004054F4: E9 43 FF FF FF     jmp         0040543C
  004054F9: 89 35 E0 A8 40 00  mov         dword ptr ds:[0040A8E0h],esi
  004054FF: 29 1F              sub         dword ptr [edi],ebx
  00405501: 89 7E 08           mov         dword ptr [esi+8],edi
  00405504: E9 28 01 00 00     jmp         00405631
  00405509: B8 C0 88 40 00     mov         eax,4088C0h
  0040550E: 8B F8              mov         edi,eax
  00405510: 83 7F 10 FF        cmp         dword ptr [edi+10h],0FFFFFFFFh
  00405514: 74 06              je          0040551C
  00405516: 83 7F 0C 00        cmp         dword ptr [edi+0Ch],0
  0040551A: 75 0C              jne         00405528
  0040551C: 8B 3F              mov         edi,dword ptr [edi]
  0040551E: 3B F8              cmp         edi,eax
  00405520: 0F 84 D7 00 00 00  je          004055FD
  00405526: EB E8              jmp         00405510
  00405528: 8B 5F 0C           mov         ebx,dword ptr [edi+0Ch]
  0040552B: 83 65 FC 00        and         dword ptr [ebp-4],0
  0040552F: 8B F3              mov         esi,ebx
  00405531: 8B C3              mov         eax,ebx
  00405533: 2B F7              sub         esi,edi
  00405535: 83 EE 18           sub         esi,18h
  00405538: C1 FE 03           sar         esi,3
  0040553B: C1 E6 0C           shl         esi,0Ch
  0040553E: 03 77 10           add         esi,dword ptr [edi+10h]
  00405541: 83 3B FF           cmp         dword ptr [ebx],0FFFFFFFFh
  00405544: 75 11              jne         00405557
  00405546: 83 7D FC 10        cmp         dword ptr [ebp-4],10h
  0040554A: 7D 0B              jge         00405557
  0040554C: 83 C0 08           add         eax,8
  0040554F: FF 45 FC           inc         dword ptr [ebp-4]
  00405552: 83 38 FF           cmp         dword ptr [eax],0FFFFFFFFh
  00405555: 74 EF              je          00405546
  00405557: 8B 45 FC           mov         eax,dword ptr [ebp-4]
  0040555A: 6A 04              push        4
  0040555C: C1 E0 0C           shl         eax,0Ch
  0040555F: 68 00 10 00 00     push        1000h
  00405564: 50                 push        eax
  00405565: 56                 push        esi
  00405566: 89 45 F8           mov         dword ptr [ebp-8],eax
  00405569: FF 15 8C 70 40 00  call        dword ptr ds:[0040708Ch]
  0040556F: 3B C6              cmp         eax,esi
  00405571: 0F 85 B8 00 00 00  jne         0040562F
  00405577: 6A 00              push        0
  00405579: FF 75 F8           push        dword ptr [ebp-8]
  0040557C: 56                 push        esi
  0040557D: E8 5E 04 00 00     call        004059E0
  00405582: 8B 55 FC           mov         edx,dword ptr [ebp-4]
  00405585: 83 C4 0C           add         esp,0Ch
  00405588: 85 D2              test        edx,edx
  0040558A: 8B CB              mov         ecx,ebx
  0040558C: 7E 30              jle         004055BE
  0040558E: 8D 46 04           lea         eax,[esi+4]
  00405591: 89 55 FC           mov         dword ptr [ebp-4],edx
  00405594: 80 88 F4 00 00 00  or          byte ptr [eax+000000F4h],0FFh
            FF
  0040559B: 8D 50 04           lea         edx,[eax+4]
  0040559E: 89 50 FC           mov         dword ptr [eax-4],edx
  004055A1: BA F0 00 00 00     mov         edx,0F0h
  004055A6: 89 10              mov         dword ptr [eax],edx
  004055A8: 89 11              mov         dword ptr [ecx],edx
  004055AA: C7 41 04 F1 00 00  mov         dword ptr [ecx+4],0F1h
            00
  004055B1: 05 00 10 00 00     add         eax,1000h
  004055B6: 83 C1 08           add         ecx,8
  004055B9: FF 4D FC           dec         dword ptr [ebp-4]
  004055BC: 75 D6              jne         00405594
  004055BE: 89 3D E0 A8 40 00  mov         dword ptr ds:[0040A8E0h],edi
  004055C4: 8D 87 18 20 00 00  lea         eax,[edi+00002018h]
  004055CA: 3B C8              cmp         ecx,eax
  004055CC: 73 0C              jae         004055DA
  004055CE: 83 39 FF           cmp         dword ptr [ecx],0FFFFFFFFh
  004055D1: 74 05              je          004055D8
  004055D3: 83 C1 08           add         ecx,8
  004055D6: EB F2              jmp         004055CA
  004055D8: 3B C8              cmp         ecx,eax
  004055DA: 1B C0              sbb         eax,eax
  004055DC: 23 C1              and         eax,ecx
  004055DE: 89 47 0C           mov         dword ptr [edi+0Ch],eax
  004055E1: 8B 45 08           mov         eax,dword ptr [ebp+8]
  004055E4: 88 46 08           mov         byte ptr [esi+8],al
  004055E7: 89 5F 08           mov         dword ptr [edi+8],ebx
  004055EA: 29 03              sub         dword ptr [ebx],eax
  004055EC: 29 46 04           sub         dword ptr [esi+4],eax
  004055EF: 8D 4C 06 08        lea         ecx,[esi+eax+8]
  004055F3: 8D 86 00 01 00 00  lea         eax,[esi+00000100h]
  004055F9: 89 0E              mov         dword ptr [esi],ecx
  004055FB: EB 34              jmp         00405631
  004055FD: E8 34 FB FF FF     call        00405136
  00405602: 85 C0              test        eax,eax
  00405604: 74 29              je          0040562F
  00405606: 8B 48 10           mov         ecx,dword ptr [eax+10h]
  00405609: 88 59 08           mov         byte ptr [ecx+8],bl
  0040560C: 8D 54 19 08        lea         edx,[ecx+ebx+8]
  00405610: A3 E0 A8 40 00     mov         dword ptr ds:[0040A8E0h],eax
  00405615: 89 11              mov         dword ptr [ecx],edx
  00405617: BA F0 00 00 00     mov         edx,0F0h
  0040561C: 2B D3              sub         edx,ebx
  0040561E: 89 51 04           mov         dword ptr [ecx+4],edx
  00405621: 0F B6 D3           movzx       edx,bl
  00405624: 29 50 18           sub         dword ptr [eax+18h],edx
  00405627: 8D 81 00 01 00 00  lea         eax,[ecx+00000100h]
  0040562D: EB 02              jmp         00405631
  0040562F: 33 C0              xor         eax,eax
  00405631: 5F                 pop         edi
  00405632: 5E                 pop         esi
  00405633: 5B                 pop         ebx
  00405634: C9                 leave
  00405635: C3                 ret
  00405636: 55                 push        ebp
  00405637: 8B EC              mov         ebp,esp
  00405639: 51                 push        ecx
  0040563A: 8B 4D 08           mov         ecx,dword ptr [ebp+8]
  0040563D: 8B 55 10           mov         edx,dword ptr [ebp+10h]
  00405640: 53                 push        ebx
  00405641: 56                 push        esi
  00405642: 8B 71 04           mov         esi,dword ptr [ecx+4]
  00405645: 57                 push        edi
  00405646: 8B 39              mov         edi,dword ptr [ecx]
  00405648: 8D 99 F8 00 00 00  lea         ebx,[ecx+000000F8h]
  0040564E: 3B F2              cmp         esi,edx
  00405650: 89 7D FC           mov         dword ptr [ebp-4],edi
  00405653: 8B C7              mov         eax,edi
  00405655: 89 5D 08           mov         dword ptr [ebp+8],ebx
  00405658: 72 21              jb          0040567B
  0040565A: 8D 04 17           lea         eax,[edi+edx]
  0040565D: 88 17              mov         byte ptr [edi],dl
  0040565F: 3B C3              cmp         eax,ebx
  00405661: 73 07              jae         0040566A
  00405663: 01 11              add         dword ptr [ecx],edx
  00405665: 29 51 04           sub         dword ptr [ecx+4],edx
  00405668: EB 09              jmp         00405673
  0040566A: 83 61 04 00        and         dword ptr [ecx+4],0
  0040566E: 8D 41 08           lea         eax,[ecx+8]
  00405671: 89 01              mov         dword ptr [ecx],eax
  00405673: 8D 47 08           lea         eax,[edi+8]
  00405676: E9 CE 00 00 00     jmp         00405749
  0040567B: 03 F7              add         esi,edi
  0040567D: 80 3E 00           cmp         byte ptr [esi],0
  00405680: 74 02              je          00405684
  00405682: 8B C6              mov         eax,esi
  00405684: 8D 34 10           lea         esi,[eax+edx]
  00405687: 3B F3              cmp         esi,ebx
  00405689: 73 43              jae         004056CE
  0040568B: 8A 18              mov         bl,byte ptr [eax]
  0040568D: 84 DB              test        bl,bl
  0040568F: 75 30              jne         004056C1
  00405691: 6A 01              push        1
  00405693: 8D 58 01           lea         ebx,[eax+1]
  00405696: 5E                 pop         esi
  00405697: 80 3B 00           cmp         byte ptr [ebx],0
  0040569A: 75 04              jne         004056A0
  0040569C: 43                 inc         ebx
  0040569D: 46                 inc         esi
  0040569E: EB F7              jmp         00405697
  004056A0: 3B F2              cmp         esi,edx
  004056A2: 73 4E              jae         004056F2
  004056A4: 3B 45 FC           cmp         eax,dword ptr [ebp-4]
  004056A7: 75 05              jne         004056AE
  004056A9: 89 71 04           mov         dword ptr [ecx+4],esi
  004056AC: EB 0C              jmp         004056BA
  004056AE: 29 75 0C           sub         dword ptr [ebp+0Ch],esi
  004056B1: 39 55 0C           cmp         dword ptr [ebp+0Ch],edx
  004056B4: 0F 82 99 00 00 00  jb          00405753
  004056BA: 8B 7D FC           mov         edi,dword ptr [ebp-4]
  004056BD: 8B C3              mov         eax,ebx
  004056BF: EB 05              jmp         004056C6
  004056C1: 0F B6 F3           movzx       esi,bl
  004056C4: 03 C6              add         eax,esi
  004056C6: 8D 34 10           lea         esi,[eax+edx]
  004056C9: 3B 75 08           cmp         esi,dword ptr [ebp+8]
  004056CC: 72 BD              jb          0040568B
  004056CE: 8D 71 08           lea         esi,[ecx+8]
  004056D1: 3B F7              cmp         esi,edi
  004056D3: 73 7E              jae         00405753
  004056D5: 8D 04 16           lea         eax,[esi+edx]
  004056D8: 3B 45 08           cmp         eax,dword ptr [ebp+8]
  004056DB: 73 76              jae         00405753
  004056DD: 8A 06              mov         al,byte ptr [esi]
  004056DF: 84 C0              test        al,al
  004056E1: 75 40              jne         00405723
  004056E3: 6A 01              push        1
  004056E5: 8D 5E 01           lea         ebx,[esi+1]
  004056E8: 58                 pop         eax
  004056E9: 80 3B 00           cmp         byte ptr [ebx],0
  004056EC: 75 25              jne         00405713
  004056EE: 43                 inc         ebx
  004056EF: 40                 inc         eax
  004056F0: EB F7              jmp         004056E9
  004056F2: 8D 1C 10           lea         ebx,[eax+edx]
  004056F5: 3B 5D 08           cmp         ebx,dword ptr [ebp+8]
  004056F8: 73 09              jae         00405703
  004056FA: 2B F2              sub         esi,edx
  004056FC: 89 19              mov         dword ptr [ecx],ebx
  004056FE: 89 71 04           mov         dword ptr [ecx+4],esi
  00405701: EB 09              jmp         0040570C
  00405703: 83 61 04 00        and         dword ptr [ecx+4],0
  00405707: 8D 71 08           lea         esi,[ecx+8]
  0040570A: 89 31              mov         dword ptr [ecx],esi
  0040570C: 88 10              mov         byte ptr [eax],dl
  0040570E: 83 C0 08           add         eax,8
  00405711: EB 36              jmp         00405749
  00405713: 3B C2              cmp         eax,edx
  00405715: 73 13              jae         0040572A
  00405717: 29 45 0C           sub         dword ptr [ebp+0Ch],eax
  0040571A: 39 55 0C           cmp         dword ptr [ebp+0Ch],edx
  0040571D: 72 34              jb          00405753
  0040571F: 8B F3              mov         esi,ebx
  00405721: EB AE              jmp         004056D1
  00405723: 0F B6 C0           movzx       eax,al
  00405726: 03 F0              add         esi,eax
  00405728: EB A7              jmp         004056D1
  0040572A: 8D 1C 16           lea         ebx,[esi+edx]
  0040572D: 3B 5D 08           cmp         ebx,dword ptr [ebp+8]
  00405730: 73 09              jae         0040573B
  00405732: 2B C2              sub         eax,edx
  00405734: 89 19              mov         dword ptr [ecx],ebx
  00405736: 89 41 04           mov         dword ptr [ecx+4],eax
  00405739: EB 09              jmp         00405744
  0040573B: 83 61 04 00        and         dword ptr [ecx+4],0
  0040573F: 8D 41 08           lea         eax,[ecx+8]
  00405742: 89 01              mov         dword ptr [ecx],eax
  00405744: 88 16              mov         byte ptr [esi],dl
  00405746: 8D 46 08           lea         eax,[esi+8]
  00405749: 6B C9 0F           imul        ecx,ecx,0Fh
  0040574C: C1 E0 04           shl         eax,4
  0040574F: 2B C1              sub         eax,ecx
  00405751: EB 02              jmp         00405755
  00405753: 33 C0              xor         eax,eax
  00405755: 5F                 pop         edi
  00405756: 5E                 pop         esi
  00405757: 5B                 pop         ebx
  00405758: C9                 leave
  00405759: C3                 ret
  0040575A: 55                 push        ebp
  0040575B: 8B EC              mov         ebp,esp
  0040575D: 51                 push        ecx
  0040575E: 8B 55 10           mov         edx,dword ptr [ebp+10h]
  00405761: 53                 push        ebx
  00405762: 8B 5D 0C           mov         ebx,dword ptr [ebp+0Ch]
  00405765: 56                 push        esi
  00405766: 0F B6 0A           movzx       ecx,byte ptr [edx]
  00405769: 57                 push        edi
  0040576A: 8B 7D 08           mov         edi,dword ptr [ebp+8]
  0040576D: 83 65 FC 00        and         dword ptr [ebp-4],0
  00405771: 8B C3              mov         eax,ebx
  00405773: 2B 47 10           sub         eax,dword ptr [edi+10h]
  00405776: C1 F8 0C           sar         eax,0Ch
  00405779: 3B 4D 14           cmp         ecx,dword ptr [ebp+14h]
  0040577C: 8D 7C C7 18        lea         edi,[edi+eax*8+18h]
  00405780: 76 12              jbe         00405794
  00405782: 8B 45 14           mov         eax,dword ptr [ebp+14h]
  00405785: 2B C8              sub         ecx,eax
  00405787: 88 02              mov         byte ptr [edx],al
  00405789: 01 0F              add         dword ptr [edi],ecx
  0040578B: C7 47 04 F1 00 00  mov         dword ptr [edi+4],0F1h
            00
  00405792: EB 60              jmp         004057F4
  00405794: 73 65              jae         004057FB
  00405796: 8B 45 14           mov         eax,dword ptr [ebp+14h]
  00405799: 8D 34 02           lea         esi,[edx+eax]
  0040579C: 8D 83 F8 00 00 00  lea         eax,[ebx+000000F8h]
  004057A2: 3B F0              cmp         esi,eax
  004057A4: 77 55              ja          004057FB
  004057A6: 8D 04 11           lea         eax,[ecx+edx]
  004057A9: 3B C6              cmp         eax,esi
  004057AB: 73 0A              jae         004057B7
  004057AD: 80 38 00           cmp         byte ptr [eax],0
  004057B0: 75 03              jne         004057B5
  004057B2: 40                 inc         eax
  004057B3: EB F4              jmp         004057A9
  004057B5: 3B C6              cmp         eax,esi
  004057B7: 75 42              jne         004057FB
  004057B9: 8A 45 14           mov         al,byte ptr [ebp+14h]
  004057BC: 88 02              mov         byte ptr [edx],al
  004057BE: 8B 03              mov         eax,dword ptr [ebx]
  004057C0: 3B D0              cmp         edx,eax
  004057C2: 77 2B              ja          004057EF
  004057C4: 3B F0              cmp         esi,eax
  004057C6: 76 27              jbe         004057EF
  004057C8: 8D 83 F8 00 00 00  lea         eax,[ebx+000000F8h]
  004057CE: 3B F0              cmp         esi,eax
  004057D0: 73 14              jae         004057E6
  004057D2: 33 C0              xor         eax,eax
  004057D4: 89 33              mov         dword ptr [ebx],esi
  004057D6: 38 06              cmp         byte ptr [esi],al
  004057D8: 75 07              jne         004057E1
  004057DA: 40                 inc         eax
  004057DB: 80 3C 06 00        cmp         byte ptr [esi+eax],0
  004057DF: 74 F9              je          004057DA
  004057E1: 89 43 04           mov         dword ptr [ebx+4],eax
  004057E4: EB 09              jmp         004057EF
  004057E6: 83 63 04 00        and         dword ptr [ebx+4],0
  004057EA: 8D 43 08           lea         eax,[ebx+8]
  004057ED: 89 03              mov         dword ptr [ebx],eax
  004057EF: 2B 4D 14           sub         ecx,dword ptr [ebp+14h]
  004057F2: 01 0F              add         dword ptr [edi],ecx
  004057F4: C7 45 FC 01 00 00  mov         dword ptr [ebp-4],1
            00
  004057FB: 8B 45 FC           mov         eax,dword ptr [ebp-4]
  004057FE: 5F                 pop         edi
  004057FF: 5E                 pop         esi
  00405800: 5B                 pop         ebx
  00405801: C9                 leave
  00405802: C3                 ret
  00405803: 53                 push        ebx
  00405804: 33 DB              xor         ebx,ebx
  00405806: 39 1D 7C AA 40 00  cmp         dword ptr ds:[0040AA7Ch],ebx
  0040580C: 56                 push        esi
  0040580D: 57                 push        edi
  0040580E: 75 42              jne         00405852
  00405810: 68 F0 74 40 00     push        4074F0h
  00405815: FF 15 98 70 40 00  call        dword ptr ds:[00407098h]
  0040581B: 8B F8              mov         edi,eax
  0040581D: 3B FB              cmp         edi,ebx
  0040581F: 74 67              je          00405888
  00405821: 8B 35 94 70 40 00  mov         esi,dword ptr ds:[00407094h]
  00405827: 68 E4 74 40 00     push        4074E4h
  0040582C: 57                 push        edi
  0040582D: FF D6              call        esi
  0040582F: 85 C0              test        eax,eax
  00405831: A3 7C AA 40 00     mov         dword ptr ds:[0040AA7Ch],eax
  00405836: 74 50              je          00405888
  00405838: 68 D4 74 40 00     push        4074D4h
  0040583D: 57                 push        edi
  0040583E: FF D6              call        esi
  00405840: 68 C0 74 40 00     push        4074C0h
  00405845: 57                 push        edi
  00405846: A3 80 AA 40 00     mov         dword ptr ds:[0040AA80h],eax
  0040584B: FF D6              call        esi
  0040584D: A3 84 AA 40 00     mov         dword ptr ds:[0040AA84h],eax
  00405852: A1 80 AA 40 00     mov         eax,dword ptr ds:[0040AA80h]
  00405857: 85 C0              test        eax,eax
  00405859: 74 16              je          00405871
  0040585B: FF D0              call        eax
  0040585D: 8B D8              mov         ebx,eax
  0040585F: 85 DB              test        ebx,ebx
  00405861: 74 0E              je          00405871
  00405863: A1 84 AA 40 00     mov         eax,dword ptr ds:[0040AA84h]
  00405868: 85 C0              test        eax,eax
  0040586A: 74 05              je          00405871
  0040586C: 53                 push        ebx
  0040586D: FF D0              call        eax
  0040586F: 8B D8              mov         ebx,eax
  00405871: FF 74 24 18        push        dword ptr [esp+18h]
  00405875: FF 74 24 18        push        dword ptr [esp+18h]
  00405879: FF 74 24 18        push        dword ptr [esp+18h]
  0040587D: 53                 push        ebx
  0040587E: FF 15 7C AA 40 00  call        dword ptr ds:[0040AA7Ch]
  00405884: 5F                 pop         edi
  00405885: 5E                 pop         esi
  00405886: 5B                 pop         ebx
  00405887: C3                 ret
  00405888: 33 C0              xor         eax,eax
  0040588A: EB F8              jmp         00405884
  0040588C: CC                 int         3
  0040588D: CC                 int         3
  0040588E: CC                 int         3
  0040588F: CC                 int         3
  00405890: 8B 4C 24 0C        mov         ecx,dword ptr [esp+0Ch]
  00405894: 57                 push        edi
  00405895: 85 C9              test        ecx,ecx
  00405897: 74 7A              je          00405913
  00405899: 56                 push        esi
  0040589A: 53                 push        ebx
  0040589B: 8B D9              mov         ebx,ecx
  0040589D: 8B 74 24 14        mov         esi,dword ptr [esp+14h]
  004058A1: F7 C6 03 00 00 00  test        esi,3
  004058A7: 8B 7C 24 10        mov         edi,dword ptr [esp+10h]
  004058AB: 75 07              jne         004058B4
  004058AD: C1 E9 02           shr         ecx,2
  004058B0: 75 6F              jne         00405921
  004058B2: EB 21              jmp         004058D5
  004058B4: 8A 06              mov         al,byte ptr [esi]
  004058B6: 46                 inc         esi
  004058B7: 88 07              mov         byte ptr [edi],al
  004058B9: 47                 inc         edi
  004058BA: 49                 dec         ecx
  004058BB: 74 25              je          004058E2
  004058BD: 84 C0              test        al,al
  004058BF: 74 29              je          004058EA
  004058C1: F7 C6 03 00 00 00  test        esi,3
  004058C7: 75 EB              jne         004058B4
  004058C9: 8B D9              mov         ebx,ecx
  004058CB: C1 E9 02           shr         ecx,2
  004058CE: 75 51              jne         00405921
  004058D0: 83 E3 03           and         ebx,3
  004058D3: 74 0D              je          004058E2
  004058D5: 8A 06              mov         al,byte ptr [esi]
  004058D7: 46                 inc         esi
  004058D8: 88 07              mov         byte ptr [edi],al
  004058DA: 47                 inc         edi
  004058DB: 84 C0              test        al,al
  004058DD: 74 2F              je          0040590E
  004058DF: 4B                 dec         ebx
  004058E0: 75 F3              jne         004058D5
  004058E2: 8B 44 24 10        mov         eax,dword ptr [esp+10h]
  004058E6: 5B                 pop         ebx
  004058E7: 5E                 pop         esi
  004058E8: 5F                 pop         edi
  004058E9: C3                 ret
  004058EA: F7 C7 03 00 00 00  test        edi,3
  004058F0: 74 12              je          00405904
  004058F2: 88 07              mov         byte ptr [edi],al
  004058F4: 47                 inc         edi
  004058F5: 49                 dec         ecx
  004058F6: 0F 84 8A 00 00 00  je          00405986
  004058FC: F7 C7 03 00 00 00  test        edi,3
  00405902: 75 EE              jne         004058F2
  00405904: 8B D9              mov         ebx,ecx
  00405906: C1 E9 02           shr         ecx,2
  00405909: 75 6C              jne         00405977
  0040590B: 88 07              mov         byte ptr [edi],al
  0040590D: 47                 inc         edi
  0040590E: 4B                 dec         ebx
  0040590F: 75 FA              jne         0040590B
  00405911: 5B                 pop         ebx
  00405912: 5E                 pop         esi
  00405913: 8B 44 24 08        mov         eax,dword ptr [esp+8]
  00405917: 5F                 pop         edi
  00405918: C3                 ret
  00405919: 89 17              mov         dword ptr [edi],edx
  0040591B: 83 C7 04           add         edi,4
  0040591E: 49                 dec         ecx
  0040591F: 74 AF              je          004058D0
  00405921: BA FF FE FE 7E     mov         edx,7EFEFEFFh
  00405926: 8B 06              mov         eax,dword ptr [esi]
  00405928: 03 D0              add         edx,eax
  0040592A: 83 F0 FF           xor         eax,0FFFFFFFFh
  0040592D: 33 C2              xor         eax,edx
  0040592F: 8B 16              mov         edx,dword ptr [esi]
  00405931: 83 C6 04           add         esi,4
  00405934: A9 00 01 01 81     test        eax,81010100h
  00405939: 74 DE              je          00405919
  0040593B: 84 D2              test        dl,dl
  0040593D: 74 2C              je          0040596B
  0040593F: 84 F6              test        dh,dh
  00405941: 74 1E              je          00405961
  00405943: F7 C2 00 00 FF 00  test        edx,0FF0000h
  00405949: 74 0C              je          00405957
  0040594B: F7 C2 00 00 00 FF  test        edx,0FF000000h
  00405951: 75 C6              jne         00405919
  00405953: 89 17              mov         dword ptr [edi],edx
  00405955: EB 18              jmp         0040596F
  00405957: 81 E2 FF FF 00 00  and         edx,0FFFFh
  0040595D: 89 17              mov         dword ptr [edi],edx
  0040595F: EB 0E              jmp         0040596F
  00405961: 81 E2 FF 00 00 00  and         edx,0FFh
  00405967: 89 17              mov         dword ptr [edi],edx
  00405969: EB 04              jmp         0040596F
  0040596B: 33 D2              xor         edx,edx
  0040596D: 89 17              mov         dword ptr [edi],edx
  0040596F: 83 C7 04           add         edi,4
  00405972: 33 C0              xor         eax,eax
  00405974: 49                 dec         ecx
  00405975: 74 0A              je          00405981
  00405977: 33 C0              xor         eax,eax
  00405979: 89 07              mov         dword ptr [edi],eax
  0040597B: 83 C7 04           add         edi,4
  0040597E: 49                 dec         ecx
  0040597F: 75 F8              jne         00405979
  00405981: 83 E3 03           and         ebx,3
  00405984: 75 85              jne         0040590B
  00405986: 8B 44 24 10        mov         eax,dword ptr [esp+10h]
  0040598A: 5B                 pop         ebx
  0040598B: 5E                 pop         esi
  0040598C: 5F                 pop         edi
  0040598D: C3                 ret
  0040598E: CC                 int         3
  0040598F: CC                 int         3
  00405990: 55                 push        ebp
  00405991: 8B EC              mov         ebp,esp
  00405993: 57                 push        edi
  00405994: 8B 7D 08           mov         edi,dword ptr [ebp+8]
  00405997: 33 C0              xor         eax,eax
  00405999: 83 C9 FF           or          ecx,0FFFFFFFFh
  0040599C: F2 AE              repne scas  byte ptr es:[edi]
  0040599E: 41                 inc         ecx
  0040599F: F7 D9              neg         ecx
  004059A1: 4F                 dec         edi
  004059A2: 8A 45 0C           mov         al,byte ptr [ebp+0Ch]
  004059A5: FD                 std
  004059A6: F2 AE              repne scas  byte ptr es:[edi]
  004059A8: 47                 inc         edi
  004059A9: 38 07              cmp         byte ptr [edi],al
  004059AB: 74 04              je          004059B1
  004059AD: 33 C0              xor         eax,eax
  004059AF: EB 02              jmp         004059B3
  004059B1: 8B C7              mov         eax,edi
  004059B3: FC                 cld
  004059B4: 5F                 pop         edi
  004059B5: C9                 leave
  004059B6: C3                 ret
  004059B7: A1 8C AA 40 00     mov         eax,dword ptr ds:[0040AA8Ch]
  004059BC: 85 C0              test        eax,eax
  004059BE: 74 0F              je          004059CF
  004059C0: FF 74 24 04        push        dword ptr [esp+4]
  004059C4: FF D0              call        eax
  004059C6: 85 C0              test        eax,eax
  004059C8: 59                 pop         ecx
  004059C9: 74 04              je          004059CF
  004059CB: 6A 01              push        1
  004059CD: 58                 pop         eax
  004059CE: C3                 ret
  004059CF: 33 C0              xor         eax,eax
  004059D1: C3                 ret
  004059D2: CC                 int         3
  004059D3: CC                 int         3
  004059D4: CC                 int         3
  004059D5: CC                 int         3
  004059D6: CC                 int         3
  004059D7: CC                 int         3
  004059D8: CC                 int         3
  004059D9: CC                 int         3
  004059DA: CC                 int         3
  004059DB: CC                 int         3
  004059DC: CC                 int         3
  004059DD: CC                 int         3
  004059DE: CC                 int         3
  004059DF: CC                 int         3
  004059E0: 8B 54 24 0C        mov         edx,dword ptr [esp+0Ch]
  004059E4: 8B 4C 24 04        mov         ecx,dword ptr [esp+4]
  004059E8: 85 D2              test        edx,edx
  004059EA: 74 47              je          00405A33
  004059EC: 33 C0              xor         eax,eax
  004059EE: 8A 44 24 08        mov         al,byte ptr [esp+8]
  004059F2: 57                 push        edi
  004059F3: 8B F9              mov         edi,ecx
  004059F5: 83 FA 04           cmp         edx,4
  004059F8: 72 2D              jb          00405A27
  004059FA: F7 D9              neg         ecx
  004059FC: 83 E1 03           and         ecx,3
  004059FF: 74 08              je          00405A09
  00405A01: 2B D1              sub         edx,ecx
  00405A03: 88 07              mov         byte ptr [edi],al
  00405A05: 47                 inc         edi
  00405A06: 49                 dec         ecx
  00405A07: 75 FA              jne         00405A03
  00405A09: 8B C8              mov         ecx,eax
  00405A0B: C1 E0 08           shl         eax,8
  00405A0E: 03 C1              add         eax,ecx
  00405A10: 8B C8              mov         ecx,eax
  00405A12: C1 E0 10           shl         eax,10h
  00405A15: 03 C1              add         eax,ecx
  00405A17: 8B CA              mov         ecx,edx
  00405A19: 83 E2 03           and         edx,3
  00405A1C: C1 E9 02           shr         ecx,2
  00405A1F: 74 06              je          00405A27
  00405A21: F3 AB              rep stos    dword ptr es:[edi]
  00405A23: 85 D2              test        edx,edx
  00405A25: 74 06              je          00405A2D
  00405A27: 88 07              mov         byte ptr [edi],al
  00405A29: 47                 inc         edi
  00405A2A: 4A                 dec         edx
  00405A2B: 75 FA              jne         00405A27
  00405A2D: 8B 44 24 08        mov         eax,dword ptr [esp+8]
  00405A31: 5F                 pop         edi
  00405A32: C3                 ret
  00405A33: 8B 44 24 04        mov         eax,dword ptr [esp+4]
  00405A37: C3                 ret
  00405A38: 55                 push        ebp
  00405A39: 8B EC              mov         ebp,esp
  00405A3B: 6A FF              push        0FFFFFFFFh
  00405A3D: 68 08 75 40 00     push        407508h
  00405A42: 68 0C 2B 40 00     push        402B0Ch
  00405A47: 64 A1 00 00 00 00  mov         eax,dword ptr fs:[00000000h]
  00405A4D: 50                 push        eax
  00405A4E: 64 89 25 00 00 00  mov         dword ptr fs:[00000000h],esp
            00
  00405A55: 83 EC 30           sub         esp,30h
  00405A58: 53                 push        ebx
  00405A59: 56                 push        esi
  00405A5A: 57                 push        edi
  00405A5B: 89 65 E8           mov         dword ptr [ebp-18h],esp
  00405A5E: 33 DB              xor         ebx,ebx
  00405A60: 39 1D 90 AA 40 00  cmp         dword ptr ds:[0040AA90h],ebx
  00405A66: 6A 01              push        1
  00405A68: 5F                 pop         edi
  00405A69: 75 40              jne         00405AAB
  00405A6B: 57                 push        edi
  00405A6C: B8 00 75 40 00     mov         eax,407500h
  00405A71: 50                 push        eax
  00405A72: 57                 push        edi
  00405A73: 50                 push        eax
  00405A74: 53                 push        ebx
  00405A75: 53                 push        ebx
  00405A76: FF 15 A4 70 40 00  call        dword ptr ds:[004070A4h]
  00405A7C: 85 C0              test        eax,eax
  00405A7E: 74 08              je          00405A88
  00405A80: 89 3D 90 AA 40 00  mov         dword ptr ds:[0040AA90h],edi
  00405A86: EB 23              jmp         00405AAB
  00405A88: 57                 push        edi
  00405A89: B8 FC 74 40 00     mov         eax,4074FCh
  00405A8E: 50                 push        eax
  00405A8F: 57                 push        edi
  00405A90: 50                 push        eax
  00405A91: 53                 push        ebx
  00405A92: 53                 push        ebx
  00405A93: FF 15 A0 70 40 00  call        dword ptr ds:[004070A0h]
  00405A99: 85 C0              test        eax,eax
  00405A9B: 0F 84 00 02 00 00  je          00405CA1
  00405AA1: C7 05 90 AA 40 00  mov         dword ptr ds:[0040AA90h],2
            02 00 00 00
  00405AAB: 8B 75 14           mov         esi,dword ptr [ebp+14h]
  00405AAE: 3B F3              cmp         esi,ebx
  00405AB0: 7E 10              jle         00405AC2
  00405AB2: 56                 push        esi
  00405AB3: FF 75 10           push        dword ptr [ebp+10h]
  00405AB6: E8 FA 01 00 00     call        00405CB5
  00405ABB: 59                 pop         ecx
  00405ABC: 59                 pop         ecx
  00405ABD: 8B F0              mov         esi,eax
  00405ABF: 89 75 14           mov         dword ptr [ebp+14h],esi
  00405AC2: 39 5D 1C           cmp         dword ptr [ebp+1Ch],ebx
  00405AC5: 7E 10              jle         00405AD7
  00405AC7: FF 75 1C           push        dword ptr [ebp+1Ch]
  00405ACA: FF 75 18           push        dword ptr [ebp+18h]
  00405ACD: E8 E3 01 00 00     call        00405CB5
  00405AD2: 59                 pop         ecx
  00405AD3: 59                 pop         ecx
  00405AD4: 89 45 1C           mov         dword ptr [ebp+1Ch],eax
  00405AD7: A1 90 AA 40 00     mov         eax,dword ptr ds:[0040AA90h]
  00405ADC: 83 F8 02           cmp         eax,2
  00405ADF: 75 1B              jne         00405AFC
  00405AE1: FF 75 1C           push        dword ptr [ebp+1Ch]
  00405AE4: FF 75 18           push        dword ptr [ebp+18h]
  00405AE7: 56                 push        esi
  00405AE8: FF 75 10           push        dword ptr [ebp+10h]
  00405AEB: FF 75 0C           push        dword ptr [ebp+0Ch]
  00405AEE: FF 75 08           push        dword ptr [ebp+8]
  00405AF1: FF 15 A0 70 40 00  call        dword ptr ds:[004070A0h]
  00405AF7: E9 A7 01 00 00     jmp         00405CA3
  00405AFC: 3B C7              cmp         eax,edi
  00405AFE: 0F 85 9D 01 00 00  jne         00405CA1
  00405B04: 39 5D 20           cmp         dword ptr [ebp+20h],ebx
  00405B07: 75 08              jne         00405B11
  00405B09: A1 AC AA 40 00     mov         eax,dword ptr ds:[0040AAACh]
  00405B0E: 89 45 20           mov         dword ptr [ebp+20h],eax
  00405B11: 3B F3              cmp         esi,ebx
  00405B13: 74 09              je          00405B1E
  00405B15: 39 5D 1C           cmp         dword ptr [ebp+1Ch],ebx
  00405B18: 0F 85 98 00 00 00  jne         00405BB6
  00405B1E: 3B 75 1C           cmp         esi,dword ptr [ebp+1Ch]
  00405B21: 75 08              jne         00405B2B
  00405B23: 6A 02              push        2
  00405B25: 58                 pop         eax
  00405B26: E9 78 01 00 00     jmp         00405CA3
  00405B2B: 39 7D 1C           cmp         dword ptr [ebp+1Ch],edi
  00405B2E: 7E 07              jle         00405B37
  00405B30: 8B C7              mov         eax,edi
  00405B32: E9 6C 01 00 00     jmp         00405CA3
  00405B37: 3B F7              cmp         esi,edi
  00405B39: 7F 41              jg          00405B7C
  00405B3B: 8D 45 C4           lea         eax,[ebp-3Ch]
  00405B3E: 50                 push        eax
  00405B3F: FF 75 20           push        dword ptr [ebp+20h]
  00405B42: FF 15 80 70 40 00  call        dword ptr ds:[00407080h]
  00405B48: 85 C0              test        eax,eax
  00405B4A: 0F 84 51 01 00 00  je          00405CA1
  00405B50: 3B F3              cmp         esi,ebx
  00405B52: 7E 2C              jle         00405B80
  00405B54: 83 7D C4 02        cmp         dword ptr [ebp-3Ch],2
  00405B58: 72 22              jb          00405B7C
  00405B5A: 8D 45 CA           lea         eax,[ebp-36h]
  00405B5D: 38 5D CA           cmp         byte ptr [ebp-36h],bl
  00405B60: 74 1A              je          00405B7C
  00405B62: 8A 50 01           mov         dl,byte ptr [eax+1]
  00405B65: 3A D3              cmp         dl,bl
  00405B67: 74 13              je          00405B7C
  00405B69: 8B 4D 10           mov         ecx,dword ptr [ebp+10h]
  00405B6C: 8A 09              mov         cl,byte ptr [ecx]
  00405B6E: 3A 08              cmp         cl,byte ptr [eax]
  00405B70: 72 04              jb          00405B76
  00405B72: 3A CA              cmp         cl,dl
  00405B74: 76 AD              jbe         00405B23
  00405B76: 40                 inc         eax
  00405B77: 40                 inc         eax
  00405B78: 38 18              cmp         byte ptr [eax],bl
  00405B7A: 75 E6              jne         00405B62
  00405B7C: 6A 03              push        3
  00405B7E: EB A5              jmp         00405B25
  00405B80: 39 5D 1C           cmp         dword ptr [ebp+1Ch],ebx
  00405B83: 7E 31              jle         00405BB6
  00405B85: 83 7D C4 02        cmp         dword ptr [ebp-3Ch],2
  00405B89: 72 A5              jb          00405B30
  00405B8B: 8D 45 CA           lea         eax,[ebp-36h]
  00405B8E: 38 5D CA           cmp         byte ptr [ebp-36h],bl
  00405B91: 74 9D              je          00405B30
  00405B93: 8A 50 01           mov         dl,byte ptr [eax+1]
  00405B96: 3A D3              cmp         dl,bl
  00405B98: 74 96              je          00405B30
  00405B9A: 8B 4D 18           mov         ecx,dword ptr [ebp+18h]
  00405B9D: 8A 09              mov         cl,byte ptr [ecx]
  00405B9F: 3A 08              cmp         cl,byte ptr [eax]
  00405BA1: 72 08              jb          00405BAB
  00405BA3: 3A CA              cmp         cl,dl
  00405BA5: 0F 86 78 FF FF FF  jbe         00405B23
  00405BAB: 40                 inc         eax
  00405BAC: 40                 inc         eax
  00405BAD: 38 18              cmp         byte ptr [eax],bl
  00405BAF: 75 E2              jne         00405B93
  00405BB1: E9 7A FF FF FF     jmp         00405B30
  00405BB6: 53                 push        ebx
  00405BB7: 53                 push        ebx
  00405BB8: 56                 push        esi
  00405BB9: FF 75 10           push        dword ptr [ebp+10h]
  00405BBC: 6A 09              push        9
  00405BBE: FF 75 20           push        dword ptr [ebp+20h]
  00405BC1: FF 15 9C 70 40 00  call        dword ptr ds:[0040709Ch]
  00405BC7: 89 45 E4           mov         dword ptr [ebp-1Ch],eax
  00405BCA: 3B C3              cmp         eax,ebx
  00405BCC: 0F 84 CF 00 00 00  je          00405CA1
  00405BD2: 89 5D FC           mov         dword ptr [ebp-4],ebx
  00405BD5: 03 C0              add         eax,eax
  00405BD7: 83 C0 03           add         eax,3
  00405BDA: 24 FC              and         al,0FCh
  00405BDC: E8 DF E9 FF FF     call        004045C0
  00405BE1: 89 65 E8           mov         dword ptr [ebp-18h],esp
  00405BE4: 8B C4              mov         eax,esp
  00405BE6: 89 45 DC           mov         dword ptr [ebp-24h],eax
  00405BE9: 83 4D FC FF        or          dword ptr [ebp-4],0FFFFFFFFh
  00405BED: EB 16              jmp         00405C05
  00405BEF: 6A 01              push        1
  00405BF1: 58                 pop         eax
  00405BF2: C3                 ret
  00405BF3: 8B 65 E8           mov         esp,dword ptr [ebp-18h]
  00405BF6: 33 DB              xor         ebx,ebx
  00405BF8: 89 5D DC           mov         dword ptr [ebp-24h],ebx
  00405BFB: 83 4D FC FF        or          dword ptr [ebp-4],0FFFFFFFFh
  00405BFF: 8B 75 14           mov         esi,dword ptr [ebp+14h]
  00405C02: 6A 01              push        1
  00405C04: 5F                 pop         edi
  00405C05: 39 5D DC           cmp         dword ptr [ebp-24h],ebx
  00405C08: 0F 84 93 00 00 00  je          00405CA1
  00405C0E: FF 75 E4           push        dword ptr [ebp-1Ch]
  00405C11: FF 75 DC           push        dword ptr [ebp-24h]
  00405C14: 56                 push        esi
  00405C15: FF 75 10           push        dword ptr [ebp+10h]
  00405C18: 57                 push        edi
  00405C19: FF 75 20           push        dword ptr [ebp+20h]
  00405C1C: 8B 35 9C 70 40 00  mov         esi,dword ptr ds:[0040709Ch]
  00405C22: FF D6              call        esi
  00405C24: 85 C0              test        eax,eax
  00405C26: 74 79              je          00405CA1
  00405C28: 53                 push        ebx
  00405C29: 53                 push        ebx
  00405C2A: FF 75 1C           push        dword ptr [ebp+1Ch]
  00405C2D: FF 75 18           push        dword ptr [ebp+18h]
  00405C30: 6A 09              push        9
  00405C32: FF 75 20           push        dword ptr [ebp+20h]
  00405C35: FF D6              call        esi
  00405C37: 8B F0              mov         esi,eax
  00405C39: 89 75 E0           mov         dword ptr [ebp-20h],esi
  00405C3C: 3B F3              cmp         esi,ebx
  00405C3E: 74 61              je          00405CA1
  00405C40: 89 7D FC           mov         dword ptr [ebp-4],edi
  00405C43: 8D 04 36           lea         eax,[esi+esi]
  00405C46: 83 C0 03           add         eax,3
  00405C49: 24 FC              and         al,0FCh
  00405C4B: E8 70 E9 FF FF     call        004045C0
  00405C50: 89 65 E8           mov         dword ptr [ebp-18h],esp
  00405C53: 8B FC              mov         edi,esp
  00405C55: 89 7D D8           mov         dword ptr [ebp-28h],edi
  00405C58: 83 4D FC FF        or          dword ptr [ebp-4],0FFFFFFFFh
  00405C5C: EB 12              jmp         00405C70
  00405C5E: 6A 01              push        1
  00405C60: 58                 pop         eax
  00405C61: C3                 ret
  00405C62: 8B 65 E8           mov         esp,dword ptr [ebp-18h]
  00405C65: 33 DB              xor         ebx,ebx
  00405C67: 33 FF              xor         edi,edi
  00405C69: 83 4D FC FF        or          dword ptr [ebp-4],0FFFFFFFFh
  00405C6D: 8B 75 E0           mov         esi,dword ptr [ebp-20h]
  00405C70: 3B FB              cmp         edi,ebx
  00405C72: 74 2D              je          00405CA1
  00405C74: 56                 push        esi
  00405C75: 57                 push        edi
  00405C76: FF 75 1C           push        dword ptr [ebp+1Ch]
  00405C79: FF 75 18           push        dword ptr [ebp+18h]
  00405C7C: 6A 01              push        1
  00405C7E: FF 75 20           push        dword ptr [ebp+20h]
  00405C81: FF 15 9C 70 40 00  call        dword ptr ds:[0040709Ch]
  00405C87: 85 C0              test        eax,eax
  00405C89: 74 16              je          00405CA1
  00405C8B: 56                 push        esi
  00405C8C: 57                 push        edi
  00405C8D: FF 75 E4           push        dword ptr [ebp-1Ch]
  00405C90: FF 75 DC           push        dword ptr [ebp-24h]
  00405C93: FF 75 0C           push        dword ptr [ebp+0Ch]
  00405C96: FF 75 08           push        dword ptr [ebp+8]
  00405C99: FF 15 A4 70 40 00  call        dword ptr ds:[004070A4h]
  00405C9F: EB 02              jmp         00405CA3
  00405CA1: 33 C0              xor         eax,eax
  00405CA3: 8D 65 B4           lea         esp,[ebp-4Ch]
  00405CA6: 8B 4D F0           mov         ecx,dword ptr [ebp-10h]
  00405CA9: 64 89 0D 00 00 00  mov         dword ptr fs:[00000000h],ecx
            00
  00405CB0: 5F                 pop         edi
  00405CB1: 5E                 pop         esi
  00405CB2: 5B                 pop         ebx
  00405CB3: C9                 leave
  00405CB4: C3                 ret
  00405CB5: 8B 54 24 08        mov         edx,dword ptr [esp+8]
  00405CB9: 8B 44 24 04        mov         eax,dword ptr [esp+4]
  00405CBD: 85 D2              test        edx,edx
  00405CBF: 56                 push        esi
  00405CC0: 8D 4A FF           lea         ecx,[edx-1]
  00405CC3: 74 0D              je          00405CD2
  00405CC5: 80 38 00           cmp         byte ptr [eax],0
  00405CC8: 74 08              je          00405CD2
  00405CCA: 40                 inc         eax
  00405CCB: 8B F1              mov         esi,ecx
  00405CCD: 49                 dec         ecx
  00405CCE: 85 F6              test        esi,esi
  00405CD0: 75 F3              jne         00405CC5
  00405CD2: 80 38 00           cmp         byte ptr [eax],0
  00405CD5: 5E                 pop         esi
  00405CD6: 75 05              jne         00405CDD
  00405CD8: 2B 44 24 04        sub         eax,dword ptr [esp+4]
  00405CDC: C3                 ret
  00405CDD: 8B C2              mov         eax,edx
  00405CDF: C3                 ret
  00405CE0: 55                 push        ebp
  00405CE1: 8B EC              mov         ebp,esp
  00405CE3: 51                 push        ecx
  00405CE4: 51                 push        ecx
  00405CE5: 53                 push        ebx
  00405CE6: 56                 push        esi
  00405CE7: 57                 push        edi
  00405CE8: 33 FF              xor         edi,edi
  00405CEA: 39 7D 08           cmp         dword ptr [ebp+8],edi
  00405CED: 74 55              je          00405D44
  00405CEF: 6A 3D              push        3Dh
  00405CF1: FF 75 08           push        dword ptr [ebp+8]
  00405CF4: E8 D8 D3 FF FF     call        004030D1
  00405CF9: 8B F0              mov         esi,eax
  00405CFB: 59                 pop         ecx
  00405CFC: 3B F7              cmp         esi,edi
  00405CFE: 59                 pop         ecx
  00405CFF: 89 75 F8           mov         dword ptr [ebp-8],esi
  00405D02: 74 40              je          00405D44
  00405D04: 39 75 08           cmp         dword ptr [ebp+8],esi
  00405D07: 74 3B              je          00405D44
  00405D09: A1 34 A9 40 00     mov         eax,dword ptr ds:[0040A934h]
  00405D0E: 33 DB              xor         ebx,ebx
  00405D10: 38 5E 01           cmp         byte ptr [esi+1],bl
  00405D13: 0F 94 C3           sete        bl
  00405D16: 3B 05 38 A9 40 00  cmp         eax,dword ptr ds:[0040A938h]
  00405D1C: 75 0C              jne         00405D2A
  00405D1E: 50                 push        eax
  00405D1F: E8 9B 01 00 00     call        00405EBF
  00405D24: 59                 pop         ecx
  00405D25: A3 34 A9 40 00     mov         dword ptr ds:[0040A934h],eax
  00405D2A: 3B C7              cmp         eax,edi
  00405D2C: 75 54              jne         00405D82
  00405D2E: 39 7D 0C           cmp         dword ptr [ebp+0Ch],edi
  00405D31: 74 19              je          00405D4C
  00405D33: 39 3D 3C A9 40 00  cmp         dword ptr ds:[0040A93Ch],edi
  00405D39: 74 11              je          00405D4C
  00405D3B: E8 8D D8 FF FF     call        004035CD
  00405D40: 85 C0              test        eax,eax
  00405D42: 74 3E              je          00405D82
  00405D44: 83 C8 FF           or          eax,0FFFFFFFFh
  00405D47: 5F                 pop         edi
  00405D48: 5E                 pop         esi
  00405D49: 5B                 pop         ebx
  00405D4A: C9                 leave
  00405D4B: C3                 ret
  00405D4C: 3B DF              cmp         ebx,edi
  00405D4E: 0F 85 0C 01 00 00  jne         00405E60
  00405D54: 6A 04              push        4
  00405D56: E8 C4 D2 FF FF     call        0040301F
  00405D5B: 3B C7              cmp         eax,edi
  00405D5D: 59                 pop         ecx
  00405D5E: A3 34 A9 40 00     mov         dword ptr ds:[0040A934h],eax
  00405D63: 74 DF              je          00405D44
  00405D65: 89 38              mov         dword ptr [eax],edi
  00405D67: 39 3D 3C A9 40 00  cmp         dword ptr ds:[0040A93Ch],edi
  00405D6D: 75 13              jne         00405D82
  00405D6F: 6A 04              push        4
  00405D71: E8 A9 D2 FF FF     call        0040301F
  00405D76: 3B C7              cmp         eax,edi
  00405D78: 59                 pop         ecx
  00405D79: A3 3C A9 40 00     mov         dword ptr ds:[0040A93Ch],eax
  00405D7E: 74 C4              je          00405D44
  00405D80: 89 38              mov         dword ptr [eax],edi
  00405D82: 2B 75 08           sub         esi,dword ptr [ebp+8]
  00405D85: 8B 3D 34 A9 40 00  mov         edi,dword ptr ds:[0040A934h]
  00405D8B: 89 7D FC           mov         dword ptr [ebp-4],edi
  00405D8E: 56                 push        esi
  00405D8F: FF 75 08           push        dword ptr [ebp+8]
  00405D92: E8 D0 00 00 00     call        00405E67
  00405D97: 8B F0              mov         esi,eax
  00405D99: 59                 pop         ecx
  00405D9A: 85 F6              test        esi,esi
  00405D9C: 59                 pop         ecx
  00405D9D: 7C 43              jl          00405DE2
  00405D9F: 83 3F 00           cmp         dword ptr [edi],0
  00405DA2: 74 3E              je          00405DE2
  00405DA4: 85 DB              test        ebx,ebx
  00405DA6: 74 32              je          00405DDA
  00405DA8: FF 34 B7           push        dword ptr [edi+esi*4]
  00405DAB: 8D 3C B7           lea         edi,[edi+esi*4]
  00405DAE: E8 BD CF FF FF     call        00402D70
  00405DB3: 59                 pop         ecx
  00405DB4: 83 3F 00           cmp         dword ptr [edi],0
  00405DB7: 74 0B              je          00405DC4
  00405DB9: 8B 47 04           mov         eax,dword ptr [edi+4]
  00405DBC: 46                 inc         esi
  00405DBD: 89 07              mov         dword ptr [edi],eax
  00405DBF: 83 C7 04           add         edi,4
  00405DC2: EB F0              jmp         00405DB4
  00405DC4: 8B C6              mov         eax,esi
  00405DC6: C1 E0 02           shl         eax,2
  00405DC9: 50                 push        eax
  00405DCA: FF 75 FC           push        dword ptr [ebp-4]
  00405DCD: E8 83 0C 00 00     call        00406A55
  00405DD2: 59                 pop         ecx
  00405DD3: 85 C0              test        eax,eax
  00405DD5: 59                 pop         ecx
  00405DD6: 74 3C              je          00405E14
  00405DD8: EB 35              jmp         00405E0F
  00405DDA: 8B 45 08           mov         eax,dword ptr [ebp+8]
  00405DDD: 89 04 B7           mov         dword ptr [edi+esi*4],eax
  00405DE0: EB 32              jmp         00405E14
  00405DE2: 85 DB              test        ebx,ebx
  00405DE4: 75 7A              jne         00405E60
  00405DE6: 85 F6              test        esi,esi
  00405DE8: 7D 02              jge         00405DEC
  00405DEA: F7 DE              neg         esi
  00405DEC: 8D 04 B5 08 00 00  lea         eax,[esi*4+00000008h]
            00
  00405DF3: 50                 push        eax
  00405DF4: 57                 push        edi
  00405DF5: E8 5B 0C 00 00     call        00406A55
  00405DFA: 59                 pop         ecx
  00405DFB: 85 C0              test        eax,eax
  00405DFD: 59                 pop         ecx
  00405DFE: 0F 84 40 FF FF FF  je          00405D44
  00405E04: 8B 4D 08           mov         ecx,dword ptr [ebp+8]
  00405E07: 89 0C B0           mov         dword ptr [eax+esi*4],ecx
  00405E0A: 83 64 B0 04 00     and         dword ptr [eax+esi*4+4],0
  00405E0F: A3 34 A9 40 00     mov         dword ptr ds:[0040A934h],eax
  00405E14: 83 7D 0C 00        cmp         dword ptr [ebp+0Ch],0
  00405E18: 74 46              je          00405E60
  00405E1A: FF 75 08           push        dword ptr [ebp+8]
  00405E1D: E8 0E D1 FF FF     call        00402F30
  00405E22: 40                 inc         eax
  00405E23: 40                 inc         eax
  00405E24: 50                 push        eax
  00405E25: E8 F5 D1 FF FF     call        0040301F
  00405E2A: 8B F0              mov         esi,eax
  00405E2C: 59                 pop         ecx
  00405E2D: 85 F6              test        esi,esi
  00405E2F: 59                 pop         ecx
  00405E30: 74 2E              je          00405E60
  00405E32: FF 75 08           push        dword ptr [ebp+8]
  00405E35: 56                 push        esi
  00405E36: E8 A5 CF FF FF     call        00402DE0
  00405E3B: 8B C6              mov         eax,esi
  00405E3D: 59                 pop         ecx
  00405E3E: 2B 45 08           sub         eax,dword ptr [ebp+8]
  00405E41: 59                 pop         ecx
  00405E42: 03 45 F8           add         eax,dword ptr [ebp-8]
  00405E45: 80 20 00           and         byte ptr [eax],0
  00405E48: 40                 inc         eax
  00405E49: F7 DB              neg         ebx
  00405E4B: 1B DB              sbb         ebx,ebx
  00405E4D: F7 D3              not         ebx
  00405E4F: 23 D8              and         ebx,eax
  00405E51: 53                 push        ebx
  00405E52: 56                 push        esi
  00405E53: FF 15 A8 70 40 00  call        dword ptr ds:[004070A8h]
  00405E59: 56                 push        esi
  00405E5A: E8 11 CF FF FF     call        00402D70
  00405E5F: 59                 pop         ecx
  00405E60: 33 C0              xor         eax,eax
  00405E62: E9 E0 FE FF FF     jmp         00405D47
  00405E67: 56                 push        esi
  00405E68: 8B 35 34 A9 40 00  mov         esi,dword ptr ds:[0040A934h]
  00405E6E: 57                 push        edi
  00405E6F: 8B 06              mov         eax,dword ptr [esi]
  00405E71: 85 C0              test        eax,eax
  00405E73: 74 2D              je          00405EA2
  00405E75: 8B 7C 24 10        mov         edi,dword ptr [esp+10h]
  00405E79: 57                 push        edi
  00405E7A: 50                 push        eax
  00405E7B: FF 74 24 14        push        dword ptr [esp+14h]
  00405E7F: E8 0A D7 FF FF     call        0040358E
  00405E84: 83 C4 0C           add         esp,0Ch
  00405E87: 85 C0              test        eax,eax
  00405E89: 75 0D              jne         00405E98
  00405E8B: 8B 06              mov         eax,dword ptr [esi]
  00405E8D: 8A 04 38           mov         al,byte ptr [eax+edi]
  00405E90: 3C 3D              cmp         al,3Dh
  00405E92: 74 1E              je          00405EB2
  00405E94: 84 C0              test        al,al
  00405E96: 74 1A              je          00405EB2
  00405E98: 8B 46 04           mov         eax,dword ptr [esi+4]
  00405E9B: 83 C6 04           add         esi,4
  00405E9E: 85 C0              test        eax,eax
  00405EA0: 75 D7              jne         00405E79
  00405EA2: 8B C6              mov         eax,esi
  00405EA4: 2B 05 34 A9 40 00  sub         eax,dword ptr ds:[0040A934h]
  00405EAA: C1 F8 02           sar         eax,2
  00405EAD: F7 D8              neg         eax
  00405EAF: 5F                 pop         edi
  00405EB0: 5E                 pop         esi
  00405EB1: C3                 ret
  00405EB2: 8B C6              mov         eax,esi
  00405EB4: 2B 05 34 A9 40 00  sub         eax,dword ptr ds:[0040A934h]
  00405EBA: C1 F8 02           sar         eax,2
  00405EBD: EB F0              jmp         00405EAF
  00405EBF: 57                 push        edi
  00405EC0: 8B 7C 24 08        mov         edi,dword ptr [esp+8]
  00405EC4: 33 C9              xor         ecx,ecx
  00405EC6: 85 FF              test        edi,edi
  00405EC8: 75 04              jne         00405ECE
  00405ECA: 33 C0              xor         eax,eax
  00405ECC: 5F                 pop         edi
  00405ECD: C3                 ret
  00405ECE: 83 3F 00           cmp         dword ptr [edi],0
  00405ED1: 8D 47 04           lea         eax,[edi+4]
  00405ED4: 74 0A              je          00405EE0
  00405ED6: 8B 10              mov         edx,dword ptr [eax]
  00405ED8: 41                 inc         ecx
  00405ED9: 83 C0 04           add         eax,4
  00405EDC: 85 D2              test        edx,edx
  00405EDE: 75 F6              jne         00405ED6
  00405EE0: 53                 push        ebx
  00405EE1: 55                 push        ebp
  00405EE2: 8D 04 8D 04 00 00  lea         eax,[ecx*4+00000004h]
            00
  00405EE9: 56                 push        esi
  00405EEA: 50                 push        eax
  00405EEB: E8 2F D1 FF FF     call        0040301F
  00405EF0: 8B F0              mov         esi,eax
  00405EF2: 59                 pop         ecx
  00405EF3: 85 F6              test        esi,esi
  00405EF5: 8B EE              mov         ebp,esi
  00405EF7: 75 08              jne         00405F01
  00405EF9: 6A 09              push        9
  00405EFB: E8 E7 B2 FF FF     call        004011E7
  00405F00: 59                 pop         ecx
  00405F01: 8B 07              mov         eax,dword ptr [edi]
  00405F03: 8B DF              mov         ebx,edi
  00405F05: 85 C0              test        eax,eax
  00405F07: 74 13              je          00405F1C
  00405F09: 50                 push        eax
  00405F0A: 83 C3 04           add         ebx,4
  00405F0D: E8 E3 0D 00 00     call        00406CF5
  00405F12: 89 06              mov         dword ptr [esi],eax
  00405F14: 8B 03              mov         eax,dword ptr [ebx]
  00405F16: 59                 pop         ecx
  00405F17: 83 C6 04           add         esi,4
  00405F1A: EB E9              jmp         00405F05
  00405F1C: 83 26 00           and         dword ptr [esi],0
  00405F1F: 8B C5              mov         eax,ebp
  00405F21: 5E                 pop         esi
  00405F22: 5D                 pop         ebp
  00405F23: 5B                 pop         ebx
  00405F24: 5F                 pop         edi
  00405F25: C3                 ret
  00405F26: 8B 44 24 04        mov         eax,dword ptr [esp+4]
  00405F2A: 3B 05 20 AE 40 00  cmp         eax,dword ptr ds:[0040AE20h]
  00405F30: 73 3D              jae         00405F6F
  00405F32: 8B C8              mov         ecx,eax
  00405F34: 8B D0              mov         edx,eax
  00405F36: C1 F9 05           sar         ecx,5
  00405F39: 83 E2 1F           and         edx,1Fh
  00405F3C: 8B 0C 8D 20 AD 40  mov         ecx,dword ptr [ecx*4+0040AD20h]
            00
  00405F43: F6 44 D1 04 01     test        byte ptr [ecx+edx*8+4],1
  00405F48: 74 25              je          00405F6F
  00405F4A: 50                 push        eax
  00405F4B: E8 4A 0E 00 00     call        00406D9A
  00405F50: 59                 pop         ecx
  00405F51: 50                 push        eax
  00405F52: FF 15 AC 70 40 00  call        dword ptr ds:[004070ACh]
  00405F58: 85 C0              test        eax,eax
  00405F5A: 75 08              jne         00405F64
  00405F5C: FF 15 14 70 40 00  call        dword ptr ds:[00407014h]
  00405F62: EB 02              jmp         00405F66
  00405F64: 33 C0              xor         eax,eax
  00405F66: 85 C0              test        eax,eax
  00405F68: 74 12              je          00405F7C
  00405F6A: A3 10 A9 40 00     mov         dword ptr ds:[0040A910h],eax
  00405F6F: C7 05 0C A9 40 00  mov         dword ptr ds:[0040A90Ch],9
            09 00 00 00
  00405F79: 83 C8 FF           or          eax,0FFFFFFFFh
  00405F7C: C3                 ret
  00405F7D: 55                 push        ebp
  00405F7E: 8B EC              mov         ebp,esp
  00405F80: 81 EC 14 04 00 00  sub         esp,414h
  00405F86: 8B 4D 08           mov         ecx,dword ptr [ebp+8]
  00405F89: 53                 push        ebx
  00405F8A: 3B 0D 20 AE 40 00  cmp         ecx,dword ptr ds:[0040AE20h]
  00405F90: 56                 push        esi
  00405F91: 57                 push        edi
  00405F92: 0F 83 79 01 00 00  jae         00406111
  00405F98: 8B C1              mov         eax,ecx
  00405F9A: 8B F1              mov         esi,ecx
  00405F9C: C1 F8 05           sar         eax,5
  00405F9F: 83 E6 1F           and         esi,1Fh
  00405FA2: 8D 1C 85 20 AD 40  lea         ebx,[eax*4+0040AD20h]
            00
  00405FA9: C1 E6 03           shl         esi,3
  00405FAC: 8B 03              mov         eax,dword ptr [ebx]
  00405FAE: 8A 44 30 04        mov         al,byte ptr [eax+esi+4]
  00405FB2: A8 01              test        al,1
  00405FB4: 0F 84 57 01 00 00  je          00406111
  00405FBA: 33 FF              xor         edi,edi
  00405FBC: 39 7D 10           cmp         dword ptr [ebp+10h],edi
  00405FBF: 89 7D F8           mov         dword ptr [ebp-8],edi
  00405FC2: 89 7D F0           mov         dword ptr [ebp-10h],edi
  00405FC5: 75 07              jne         00405FCE
  00405FC7: 33 C0              xor         eax,eax
  00405FC9: E9 57 01 00 00     jmp         00406125
  00405FCE: A8 20              test        al,20h
  00405FD0: 74 0C              je          00405FDE
  00405FD2: 6A 02              push        2
  00405FD4: 57                 push        edi
  00405FD5: 51                 push        ecx
  00405FD6: E8 58 01 00 00     call        00406133
  00405FDB: 83 C4 0C           add         esp,0Ch
  00405FDE: 8B 03              mov         eax,dword ptr [ebx]
  00405FE0: 03 C6              add         eax,esi
  00405FE2: F6 40 04 80        test        byte ptr [eax+4],80h
  00405FE6: 0F 84 C1 00 00 00  je          004060AD
  00405FEC: 8B 45 0C           mov         eax,dword ptr [ebp+0Ch]
  00405FEF: 39 7D 10           cmp         dword ptr [ebp+10h],edi
  00405FF2: 89 45 FC           mov         dword ptr [ebp-4],eax
  00405FF5: 89 7D 08           mov         dword ptr [ebp+8],edi
  00405FF8: 0F 86 E7 00 00 00  jbe         004060E5
  00405FFE: 8D 85 EC FB FF FF  lea         eax,[ebp+FFFFFBECh]
  00406004: 8B 4D FC           mov         ecx,dword ptr [ebp-4]
  00406007: 2B 4D 0C           sub         ecx,dword ptr [ebp+0Ch]
  0040600A: 3B 4D 10           cmp         ecx,dword ptr [ebp+10h]
  0040600D: 73 29              jae         00406038
  0040600F: 8B 4D FC           mov         ecx,dword ptr [ebp-4]
  00406012: FF 45 FC           inc         dword ptr [ebp-4]
  00406015: 8A 09              mov         cl,byte ptr [ecx]
  00406017: 80 F9 0A           cmp         cl,0Ah
  0040601A: 75 07              jne         00406023
  0040601C: FF 45 F0           inc         dword ptr [ebp-10h]
  0040601F: C6 00 0D           mov         byte ptr [eax],0Dh
  00406022: 40                 inc         eax
  00406023: 88 08              mov         byte ptr [eax],cl
  00406025: 40                 inc         eax
  00406026: 8B C8              mov         ecx,eax
  00406028: 8D 95 EC FB FF FF  lea         edx,[ebp+FFFFFBECh]
  0040602E: 2B CA              sub         ecx,edx
  00406030: 81 F9 00 04 00 00  cmp         ecx,400h
  00406036: 7C CC              jl          00406004
  00406038: 8B F8              mov         edi,eax
  0040603A: 8D 85 EC FB FF FF  lea         eax,[ebp+FFFFFBECh]
  00406040: 2B F8              sub         edi,eax
  00406042: 8D 45 F4           lea         eax,[ebp-0Ch]
  00406045: 6A 00              push        0
  00406047: 50                 push        eax
  00406048: 8D 85 EC FB FF FF  lea         eax,[ebp+FFFFFBECh]
  0040604E: 57                 push        edi
  0040604F: 50                 push        eax
  00406050: 8B 03              mov         eax,dword ptr [ebx]
  00406052: FF 34 30           push        dword ptr [eax+esi]
  00406055: FF 15 68 70 40 00  call        dword ptr ds:[00407068h]
  0040605B: 85 C0              test        eax,eax
  0040605D: 74 43              je          004060A2
  0040605F: 8B 45 F4           mov         eax,dword ptr [ebp-0Ch]
  00406062: 01 45 F8           add         dword ptr [ebp-8],eax
  00406065: 3B C7              cmp         eax,edi
  00406067: 7C 0B              jl          00406074
  00406069: 8B 45 FC           mov         eax,dword ptr [ebp-4]
  0040606C: 2B 45 0C           sub         eax,dword ptr [ebp+0Ch]
  0040606F: 3B 45 10           cmp         eax,dword ptr [ebp+10h]
  00406072: 72 8A              jb          00405FFE
  00406074: 33 FF              xor         edi,edi
  00406076: 8B 45 F8           mov         eax,dword ptr [ebp-8]
  00406079: 3B C7              cmp         eax,edi
  0040607B: 0F 85 8B 00 00 00  jne         0040610C
  00406081: 39 7D 08           cmp         dword ptr [ebp+8],edi
  00406084: 74 5F              je          004060E5
  00406086: 6A 05              push        5
  00406088: 58                 pop         eax
  00406089: 39 45 08           cmp         dword ptr [ebp+8],eax
  0040608C: 75 4C              jne         004060DA
  0040608E: C7 05 0C A9 40 00  mov         dword ptr ds:[0040A90Ch],9
            09 00 00 00
  00406098: A3 10 A9 40 00     mov         dword ptr ds:[0040A910h],eax
  0040609D: E9 80 00 00 00     jmp         00406122
  004060A2: FF 15 14 70 40 00  call        dword ptr ds:[00407014h]
  004060A8: 89 45 08           mov         dword ptr [ebp+8],eax
  004060AB: EB C7              jmp         00406074
  004060AD: 8D 4D F4           lea         ecx,[ebp-0Ch]
  004060B0: 57                 push        edi
  004060B1: 51                 push        ecx
  004060B2: FF 75 10           push        dword ptr [ebp+10h]
  004060B5: FF 75 0C           push        dword ptr [ebp+0Ch]
  004060B8: FF 30              push        dword ptr [eax]
  004060BA: FF 15 68 70 40 00  call        dword ptr ds:[00407068h]
  004060C0: 85 C0              test        eax,eax
  004060C2: 74 0B              je          004060CF
  004060C4: 8B 45 F4           mov         eax,dword ptr [ebp-0Ch]
  004060C7: 89 7D 08           mov         dword ptr [ebp+8],edi
  004060CA: 89 45 F8           mov         dword ptr [ebp-8],eax
  004060CD: EB A7              jmp         00406076
  004060CF: FF 15 14 70 40 00  call        dword ptr ds:[00407014h]
  004060D5: 89 45 08           mov         dword ptr [ebp+8],eax
  004060D8: EB 9C              jmp         00406076
  004060DA: FF 75 08           push        dword ptr [ebp+8]
  004060DD: E8 45 D4 FF FF     call        00403527
  004060E2: 59                 pop         ecx
  004060E3: EB 3D              jmp         00406122
  004060E5: 8B 03              mov         eax,dword ptr [ebx]
  004060E7: F6 44 30 04 40     test        byte ptr [eax+esi+4],40h
  004060EC: 74 0C              je          004060FA
  004060EE: 8B 45 0C           mov         eax,dword ptr [ebp+0Ch]
  004060F1: 80 38 1A           cmp         byte ptr [eax],1Ah
  004060F4: 0F 84 CD FE FF FF  je          00405FC7
  004060FA: C7 05 0C A9 40 00  mov         dword ptr ds:[0040A90Ch],1Ch
            1C 00 00 00
  00406104: 89 3D 10 A9 40 00  mov         dword ptr ds:[0040A910h],edi
  0040610A: EB 16              jmp         00406122
  0040610C: 2B 45 F0           sub         eax,dword ptr [ebp-10h]
  0040610F: EB 14              jmp         00406125
  00406111: 83 25 10 A9 40 00  and         dword ptr ds:[0040A910h],0
            00
  00406118: C7 05 0C A9 40 00  mov         dword ptr ds:[0040A90Ch],9
            09 00 00 00
  00406122: 83 C8 FF           or          eax,0FFFFFFFFh
  00406125: 5F                 pop         edi
  00406126: 5E                 pop         esi
  00406127: 5B                 pop         ebx
  00406128: C9                 leave
  00406129: C3                 ret
  0040612A: 6A 02              push        2
  0040612C: E8 B6 B0 FF FF     call        004011E7
  00406131: 59                 pop         ecx
  00406132: C3                 ret
  00406133: 8B 44 24 04        mov         eax,dword ptr [esp+4]
  00406137: 53                 push        ebx
  00406138: 3B 05 20 AE 40 00  cmp         eax,dword ptr ds:[0040AE20h]
  0040613E: 56                 push        esi
  0040613F: 57                 push        edi
  00406140: 73 73              jae         004061B5
  00406142: 8B C8              mov         ecx,eax
  00406144: 8B F0              mov         esi,eax
  00406146: C1 F9 05           sar         ecx,5
  00406149: 83 E6 1F           and         esi,1Fh
  0040614C: 8D 3C 8D 20 AD 40  lea         edi,[ecx*4+0040AD20h]
            00
  00406153: C1 E6 03           shl         esi,3
  00406156: 8B 0F              mov         ecx,dword ptr [edi]
  00406158: F6 44 31 04 01     test        byte ptr [ecx+esi+4],1
  0040615D: 74 56              je          004061B5
  0040615F: 50                 push        eax
  00406160: E8 35 0C 00 00     call        00406D9A
  00406165: 83 F8 FF           cmp         eax,0FFFFFFFFh
  00406168: 59                 pop         ecx
  00406169: 75 0C              jne         00406177
  0040616B: C7 05 0C A9 40 00  mov         dword ptr ds:[0040A90Ch],9
            09 00 00 00
  00406175: EB 4F              jmp         004061C6
  00406177: FF 74 24 18        push        dword ptr [esp+18h]
  0040617B: 6A 00              push        0
  0040617D: FF 74 24 1C        push        dword ptr [esp+1Ch]
  00406181: 50                 push        eax
  00406182: FF 15 B0 70 40 00  call        dword ptr ds:[004070B0h]
  00406188: 8B D8              mov         ebx,eax
  0040618A: 83 FB FF           cmp         ebx,0FFFFFFFFh
  0040618D: 75 08              jne         00406197
  0040618F: FF 15 14 70 40 00  call        dword ptr ds:[00407014h]
  00406195: EB 02              jmp         00406199
  00406197: 33 C0              xor         eax,eax
  00406199: 85 C0              test        eax,eax
  0040619B: 74 09              je          004061A6
  0040619D: 50                 push        eax
  0040619E: E8 84 D3 FF FF     call        00403527
  004061A3: 59                 pop         ecx
  004061A4: EB 20              jmp         004061C6
  004061A6: 8B 07              mov         eax,dword ptr [edi]
  004061A8: 80 64 30 04 FD     and         byte ptr [eax+esi+4],0FDh
  004061AD: 8D 44 30 04        lea         eax,[eax+esi+4]
  004061B1: 8B C3              mov         eax,ebx
  004061B3: EB 14              jmp         004061C9
  004061B5: 83 25 10 A9 40 00  and         dword ptr ds:[0040A910h],0
            00
  004061BC: C7 05 0C A9 40 00  mov         dword ptr ds:[0040A90Ch],9
            09 00 00 00
  004061C6: 83 C8 FF           or          eax,0FFFFFFFFh
  004061C9: 5F                 pop         edi
  004061CA: 5E                 pop         esi
  004061CB: 5B                 pop         ebx
  004061CC: C3                 ret
  004061CD: FF 05 60 A9 40 00  inc         dword ptr ds:[0040A960h]
  004061D3: 68 00 10 00 00     push        1000h
  004061D8: E8 42 CE FF FF     call        0040301F
  004061DD: 59                 pop         ecx
  004061DE: 8B 4C 24 04        mov         ecx,dword ptr [esp+4]
  004061E2: 85 C0              test        eax,eax
  004061E4: 89 41 08           mov         dword ptr [ecx+8],eax
  004061E7: 74 0D              je          004061F6
  004061E9: 83 49 0C 08        or          dword ptr [ecx+0Ch],8
  004061ED: C7 41 18 00 10 00  mov         dword ptr [ecx+18h],1000h
            00
  004061F4: EB 11              jmp         00406207
  004061F6: 83 49 0C 04        or          dword ptr [ecx+0Ch],4
  004061FA: 8D 41 14           lea         eax,[ecx+14h]
  004061FD: 89 41 08           mov         dword ptr [ecx+8],eax
  00406200: C7 41 18 02 00 00  mov         dword ptr [ecx+18h],2
            00
  00406207: 8B 41 08           mov         eax,dword ptr [ecx+8]
  0040620A: 83 61 04 00        and         dword ptr [ecx+4],0
  0040620E: 89 01              mov         dword ptr [ecx],eax
  00406210: C3                 ret
  00406211: 56                 push        esi
  00406212: 8B 74 24 08        mov         esi,dword ptr [esp+8]
  00406216: 57                 push        edi
  00406217: 83 CF FF           or          edi,0FFFFFFFFh
  0040621A: 8B 46 0C           mov         eax,dword ptr [esi+0Ch]
  0040621D: A8 40              test        al,40h
  0040621F: 74 05              je          00406226
  00406221: 83 C8 FF           or          eax,0FFFFFFFFh
  00406224: EB 3A              jmp         00406260
  00406226: A8 83              test        al,83h
  00406228: 74 34              je          0040625E
  0040622A: 56                 push        esi
  0040622B: E8 6C D4 FF FF     call        0040369C
  00406230: 56                 push        esi
  00406231: 8B F8              mov         edi,eax
  00406233: E8 52 0C 00 00     call        00406E8A
  00406238: FF 76 10           push        dword ptr [esi+10h]
  0040623B: E8 97 0B 00 00     call        00406DD7
  00406240: 83 C4 0C           add         esp,0Ch
  00406243: 85 C0              test        eax,eax
  00406245: 7D 05              jge         0040624C
  00406247: 83 CF FF           or          edi,0FFFFFFFFh
  0040624A: EB 12              jmp         0040625E
  0040624C: 8B 46 1C           mov         eax,dword ptr [esi+1Ch]
  0040624F: 85 C0              test        eax,eax
  00406251: 74 0B              je          0040625E
  00406253: 50                 push        eax
  00406254: E8 17 CB FF FF     call        00402D70
  00406259: 83 66 1C 00        and         dword ptr [esi+1Ch],0
  0040625D: 59                 pop         ecx
  0040625E: 8B C7              mov         eax,edi
  00406260: 83 66 0C 00        and         dword ptr [esi+0Ch],0
  00406264: 5F                 pop         edi
  00406265: 5E                 pop         esi
  00406266: C3                 ret
  00406267: 55                 push        ebp
  00406268: 8B EC              mov         ebp,esp
  0040626A: 6A FF              push        0FFFFFFFFh
  0040626C: 68 20 75 40 00     push        407520h
  00406271: 68 0C 2B 40 00     push        402B0Ch
  00406276: 64 A1 00 00 00 00  mov         eax,dword ptr fs:[00000000h]
  0040627C: 50                 push        eax
  0040627D: 64 89 25 00 00 00  mov         dword ptr fs:[00000000h],esp
            00
  00406284: 83 EC 1C           sub         esp,1Ch
  00406287: 53                 push        ebx
  00406288: 56                 push        esi
  00406289: 57                 push        edi
  0040628A: 89 65 E8           mov         dword ptr [ebp-18h],esp
  0040628D: 33 FF              xor         edi,edi
  0040628F: 39 3D B4 AA 40 00  cmp         dword ptr ds:[0040AAB4h],edi
  00406295: 75 46              jne         004062DD
  00406297: 57                 push        edi
  00406298: 57                 push        edi
  00406299: 6A 01              push        1
  0040629B: 5B                 pop         ebx
  0040629C: 53                 push        ebx
  0040629D: 68 00 75 40 00     push        407500h
  004062A2: BE 00 01 00 00     mov         esi,100h
  004062A7: 56                 push        esi
  004062A8: 57                 push        edi
  004062A9: FF 15 B8 70 40 00  call        dword ptr ds:[004070B8h]
  004062AF: 85 C0              test        eax,eax
  004062B1: 74 08              je          004062BB
  004062B3: 89 1D B4 AA 40 00  mov         dword ptr ds:[0040AAB4h],ebx
  004062B9: EB 22              jmp         004062DD
  004062BB: 57                 push        edi
  004062BC: 57                 push        edi
  004062BD: 53                 push        ebx
  004062BE: 68 FC 74 40 00     push        4074FCh
  004062C3: 56                 push        esi
  004062C4: 57                 push        edi
  004062C5: FF 15 B4 70 40 00  call        dword ptr ds:[004070B4h]
  004062CB: 85 C0              test        eax,eax
  004062CD: 0F 84 22 01 00 00  je          004063F5
  004062D3: C7 05 B4 AA 40 00  mov         dword ptr ds:[0040AAB4h],2
            02 00 00 00
  004062DD: 39 7D 14           cmp         dword ptr [ebp+14h],edi
  004062E0: 7E 10              jle         004062F2
  004062E2: FF 75 14           push        dword ptr [ebp+14h]
  004062E5: FF 75 10           push        dword ptr [ebp+10h]
  004062E8: E8 C8 F9 FF FF     call        00405CB5
  004062ED: 59                 pop         ecx
  004062EE: 59                 pop         ecx
  004062EF: 89 45 14           mov         dword ptr [ebp+14h],eax
  004062F2: A1 B4 AA 40 00     mov         eax,dword ptr ds:[0040AAB4h]
  004062F7: 83 F8 02           cmp         eax,2
  004062FA: 75 1D              jne         00406319
  004062FC: FF 75 1C           push        dword ptr [ebp+1Ch]
  004062FF: FF 75 18           push        dword ptr [ebp+18h]
  00406302: FF 75 14           push        dword ptr [ebp+14h]
  00406305: FF 75 10           push        dword ptr [ebp+10h]
  00406308: FF 75 0C           push        dword ptr [ebp+0Ch]
  0040630B: FF 75 08           push        dword ptr [ebp+8]
  0040630E: FF 15 B4 70 40 00  call        dword ptr ds:[004070B4h]
  00406314: E9 DE 00 00 00     jmp         004063F7
  00406319: 83 F8 01           cmp         eax,1
  0040631C: 0F 85 D3 00 00 00  jne         004063F5
  00406322: 39 7D 20           cmp         dword ptr [ebp+20h],edi
  00406325: 75 08              jne         0040632F
  00406327: A1 AC AA 40 00     mov         eax,dword ptr ds:[0040AAACh]
  0040632C: 89 45 20           mov         dword ptr [ebp+20h],eax
  0040632F: 57                 push        edi
  00406330: 57                 push        edi
  00406331: FF 75 14           push        dword ptr [ebp+14h]
  00406334: FF 75 10           push        dword ptr [ebp+10h]
  00406337: 8B 45 24           mov         eax,dword ptr [ebp+24h]
  0040633A: F7 D8              neg         eax
  0040633C: 1B C0              sbb         eax,eax
  0040633E: 83 E0 08           and         eax,8
  00406341: 40                 inc         eax
  00406342: 50                 push        eax
  00406343: FF 75 20           push        dword ptr [ebp+20h]
  00406346: FF 15 9C 70 40 00  call        dword ptr ds:[0040709Ch]
  0040634C: 8B D8              mov         ebx,eax
  0040634E: 89 5D E4           mov         dword ptr [ebp-1Ch],ebx
  00406351: 3B DF              cmp         ebx,edi
  00406353: 0F 84 9C 00 00 00  je          004063F5
  00406359: 89 7D FC           mov         dword ptr [ebp-4],edi
  0040635C: 8D 04 1B           lea         eax,[ebx+ebx]
  0040635F: 83 C0 03           add         eax,3
  00406362: 24 FC              and         al,0FCh
  00406364: E8 57 E2 FF FF     call        004045C0
  00406369: 89 65 E8           mov         dword ptr [ebp-18h],esp
  0040636C: 8B C4              mov         eax,esp
  0040636E: 89 45 DC           mov         dword ptr [ebp-24h],eax
  00406371: 83 4D FC FF        or          dword ptr [ebp-4],0FFFFFFFFh
  00406375: EB 13              jmp         0040638A
  00406377: 6A 01              push        1
  00406379: 58                 pop         eax
  0040637A: C3                 ret
  0040637B: 8B 65 E8           mov         esp,dword ptr [ebp-18h]
  0040637E: 33 FF              xor         edi,edi
  00406380: 89 7D DC           mov         dword ptr [ebp-24h],edi
  00406383: 83 4D FC FF        or          dword ptr [ebp-4],0FFFFFFFFh
  00406387: 8B 5D E4           mov         ebx,dword ptr [ebp-1Ch]
  0040638A: 39 7D DC           cmp         dword ptr [ebp-24h],edi
  0040638D: 74 66              je          004063F5
  0040638F: 53                 push        ebx
  00406390: FF 75 DC           push        dword ptr [ebp-24h]
  00406393: FF 75 14           push        dword ptr [ebp+14h]
  00406396: FF 75 10           push        dword ptr [ebp+10h]
  00406399: 6A 01              push        1
  0040639B: FF 75 20           push        dword ptr [ebp+20h]
  0040639E: FF 15 9C 70 40 00  call        dword ptr ds:[0040709Ch]
  004063A4: 85 C0              test        eax,eax
  004063A6: 74 4D              je          004063F5
  004063A8: 57                 push        edi
  004063A9: 57                 push        edi
  004063AA: 53                 push        ebx
  004063AB: FF 75 DC           push        dword ptr [ebp-24h]
  004063AE: FF 75 0C           push        dword ptr [ebp+0Ch]
  004063B1: FF 75 08           push        dword ptr [ebp+8]
  004063B4: FF 15 B8 70 40 00  call        dword ptr ds:[004070B8h]
  004063BA: 8B F0              mov         esi,eax
  004063BC: 89 75 D8           mov         dword ptr [ebp-28h],esi
  004063BF: 3B F7              cmp         esi,edi
  004063C1: 74 32              je          004063F5
  004063C3: F6 45 0D 04        test        byte ptr [ebp+0Dh],4
  004063C7: 74 40              je          00406409
  004063C9: 39 7D 1C           cmp         dword ptr [ebp+1Ch],edi
  004063CC: 0F 84 B2 00 00 00  je          00406484
  004063D2: 3B 75 1C           cmp         esi,dword ptr [ebp+1Ch]
  004063D5: 7F 1E              jg          004063F5
  004063D7: FF 75 1C           push        dword ptr [ebp+1Ch]
  004063DA: FF 75 18           push        dword ptr [ebp+18h]
  004063DD: 53                 push        ebx
  004063DE: FF 75 DC           push        dword ptr [ebp-24h]
  004063E1: FF 75 0C           push        dword ptr [ebp+0Ch]
  004063E4: FF 75 08           push        dword ptr [ebp+8]
  004063E7: FF 15 B8 70 40 00  call        dword ptr ds:[004070B8h]
  004063ED: 85 C0              test        eax,eax
  004063EF: 0F 85 8F 00 00 00  jne         00406484
  004063F5: 33 C0              xor         eax,eax
  004063F7: 8D 65 C8           lea         esp,[ebp-38h]
  004063FA: 8B 4D F0           mov         ecx,dword ptr [ebp-10h]
  004063FD: 64 89 0D 00 00 00  mov         dword ptr fs:[00000000h],ecx
            00
  00406404: 5F                 pop         edi
  00406405: 5E                 pop         esi
  00406406: 5B                 pop         ebx
  00406407: C9                 leave
  00406408: C3                 ret
  00406409: C7 45 FC 01 00 00  mov         dword ptr [ebp-4],1
            00
  00406410: 8D 04 36           lea         eax,[esi+esi]
  00406413: 83 C0 03           add         eax,3
  00406416: 24 FC              and         al,0FCh
  00406418: E8 A3 E1 FF FF     call        004045C0
  0040641D: 89 65 E8           mov         dword ptr [ebp-18h],esp
  00406420: 8B DC              mov         ebx,esp
  00406422: 89 5D E0           mov         dword ptr [ebp-20h],ebx
  00406425: 83 4D FC FF        or          dword ptr [ebp-4],0FFFFFFFFh
  00406429: EB 12              jmp         0040643D
  0040642B: 6A 01              push        1
  0040642D: 58                 pop         eax
  0040642E: C3                 ret
  0040642F: 8B 65 E8           mov         esp,dword ptr [ebp-18h]
  00406432: 33 FF              xor         edi,edi
  00406434: 33 DB              xor         ebx,ebx
  00406436: 83 4D FC FF        or          dword ptr [ebp-4],0FFFFFFFFh
  0040643A: 8B 75 D8           mov         esi,dword ptr [ebp-28h]
  0040643D: 3B DF              cmp         ebx,edi
  0040643F: 74 B4              je          004063F5
  00406441: 56                 push        esi
  00406442: 53                 push        ebx
  00406443: FF 75 E4           push        dword ptr [ebp-1Ch]
  00406446: FF 75 DC           push        dword ptr [ebp-24h]
  00406449: FF 75 0C           push        dword ptr [ebp+0Ch]
  0040644C: FF 75 08           push        dword ptr [ebp+8]
  0040644F: FF 15 B8 70 40 00  call        dword ptr ds:[004070B8h]
  00406455: 85 C0              test        eax,eax
  00406457: 74 9C              je          004063F5
  00406459: 39 7D 1C           cmp         dword ptr [ebp+1Ch],edi
  0040645C: 57                 push        edi
  0040645D: 57                 push        edi
  0040645E: 75 04              jne         00406464
  00406460: 57                 push        edi
  00406461: 57                 push        edi
  00406462: EB 06              jmp         0040646A
  00406464: FF 75 1C           push        dword ptr [ebp+1Ch]
  00406467: FF 75 18           push        dword ptr [ebp+18h]
  0040646A: 56                 push        esi
  0040646B: 53                 push        ebx
  0040646C: 68 20 02 00 00     push        220h
  00406471: FF 75 20           push        dword ptr [ebp+20h]
  00406474: FF 15 2C 70 40 00  call        dword ptr ds:[0040702Ch]
  0040647A: 8B F0              mov         esi,eax
  0040647C: 3B F7              cmp         esi,edi
  0040647E: 0F 84 71 FF FF FF  je          004063F5
  00406484: 8B C6              mov         eax,esi
  00406486: E9 6C FF FF FF     jmp         004063F7
  0040648B: 55                 push        ebp
  0040648C: 8B EC              mov         ebp,esp
  0040648E: 6A FF              push        0FFFFFFFFh
  00406490: 68 38 75 40 00     push        407538h
  00406495: 68 0C 2B 40 00     push        402B0Ch
  0040649A: 64 A1 00 00 00 00  mov         eax,dword ptr fs:[00000000h]
  004064A0: 50                 push        eax
  004064A1: 64 89 25 00 00 00  mov         dword ptr fs:[00000000h],esp
            00
  004064A8: 83 EC 18           sub         esp,18h
  004064AB: 53                 push        ebx
  004064AC: 56                 push        esi
  004064AD: 57                 push        edi
  004064AE: 89 65 E8           mov         dword ptr [ebp-18h],esp
  004064B1: A1 B8 AA 40 00     mov         eax,dword ptr ds:[0040AAB8h]
  004064B6: 33 DB              xor         ebx,ebx
  004064B8: 3B C3              cmp         eax,ebx
  004064BA: 75 3E              jne         004064FA
  004064BC: 8D 45 E4           lea         eax,[ebp-1Ch]
  004064BF: 50                 push        eax
  004064C0: 6A 01              push        1
  004064C2: 5E                 pop         esi
  004064C3: 56                 push        esi
  004064C4: 68 00 75 40 00     push        407500h
  004064C9: 56                 push        esi
  004064CA: FF 15 C0 70 40 00  call        dword ptr ds:[004070C0h]
  004064D0: 85 C0              test        eax,eax
  004064D2: 74 04              je          004064D8
  004064D4: 8B C6              mov         eax,esi
  004064D6: EB 1D              jmp         004064F5
  004064D8: 8D 45 E4           lea         eax,[ebp-1Ch]
  004064DB: 50                 push        eax
  004064DC: 56                 push        esi
  004064DD: 68 FC 74 40 00     push        4074FCh
  004064E2: 56                 push        esi
  004064E3: 53                 push        ebx
  004064E4: FF 15 BC 70 40 00  call        dword ptr ds:[004070BCh]
  004064EA: 85 C0              test        eax,eax
  004064EC: 0F 84 CE 00 00 00  je          004065C0
  004064F2: 6A 02              push        2
  004064F4: 58                 pop         eax
  004064F5: A3 B8 AA 40 00     mov         dword ptr ds:[0040AAB8h],eax
  004064FA: 83 F8 02           cmp         eax,2
  004064FD: 75 24              jne         00406523
  004064FF: 8B 45 1C           mov         eax,dword ptr [ebp+1Ch]
  00406502: 3B C3              cmp         eax,ebx
  00406504: 75 05              jne         0040650B
  00406506: A1 9C AA 40 00     mov         eax,dword ptr ds:[0040AA9Ch]
  0040650B: FF 75 14           push        dword ptr [ebp+14h]
  0040650E: FF 75 10           push        dword ptr [ebp+10h]
  00406511: FF 75 0C           push        dword ptr [ebp+0Ch]
  00406514: FF 75 08           push        dword ptr [ebp+8]
  00406517: 50                 push        eax
  00406518: FF 15 BC 70 40 00  call        dword ptr ds:[004070BCh]
  0040651E: E9 9F 00 00 00     jmp         004065C2
  00406523: 83 F8 01           cmp         eax,1
  00406526: 0F 85 94 00 00 00  jne         004065C0
  0040652C: 39 5D 18           cmp         dword ptr [ebp+18h],ebx
  0040652F: 75 08              jne         00406539
  00406531: A1 AC AA 40 00     mov         eax,dword ptr ds:[0040AAACh]
  00406536: 89 45 18           mov         dword ptr [ebp+18h],eax
  00406539: 53                 push        ebx
  0040653A: 53                 push        ebx
  0040653B: FF 75 10           push        dword ptr [ebp+10h]
  0040653E: FF 75 0C           push        dword ptr [ebp+0Ch]
  00406541: 8B 45 20           mov         eax,dword ptr [ebp+20h]
  00406544: F7 D8              neg         eax
  00406546: 1B C0              sbb         eax,eax
  00406548: 83 E0 08           and         eax,8
  0040654B: 40                 inc         eax
  0040654C: 50                 push        eax
  0040654D: FF 75 18           push        dword ptr [ebp+18h]
  00406550: FF 15 9C 70 40 00  call        dword ptr ds:[0040709Ch]
  00406556: 89 45 E0           mov         dword ptr [ebp-20h],eax
  00406559: 3B C3              cmp         eax,ebx
  0040655B: 74 63              je          004065C0
  0040655D: 89 5D FC           mov         dword ptr [ebp-4],ebx
  00406560: 8D 3C 00           lea         edi,[eax+eax]
  00406563: 8B C7              mov         eax,edi
  00406565: 83 C0 03           add         eax,3
  00406568: 24 FC              and         al,0FCh
  0040656A: E8 51 E0 FF FF     call        004045C0
  0040656F: 89 65 E8           mov         dword ptr [ebp-18h],esp
  00406572: 8B F4              mov         esi,esp
  00406574: 89 75 DC           mov         dword ptr [ebp-24h],esi
  00406577: 57                 push        edi
  00406578: 53                 push        ebx
  00406579: 56                 push        esi
  0040657A: E8 61 F4 FF FF     call        004059E0
  0040657F: 83 C4 0C           add         esp,0Ch
  00406582: EB 0B              jmp         0040658F
  00406584: 6A 01              push        1
  00406586: 58                 pop         eax
  00406587: C3                 ret
  00406588: 8B 65 E8           mov         esp,dword ptr [ebp-18h]
  0040658B: 33 DB              xor         ebx,ebx
  0040658D: 33 F6              xor         esi,esi
  0040658F: 83 4D FC FF        or          dword ptr [ebp-4],0FFFFFFFFh
  00406593: 3B F3              cmp         esi,ebx
  00406595: 74 29              je          004065C0
  00406597: FF 75 E0           push        dword ptr [ebp-20h]
  0040659A: 56                 push        esi
  0040659B: FF 75 10           push        dword ptr [ebp+10h]
  0040659E: FF 75 0C           push        dword ptr [ebp+0Ch]
  004065A1: 6A 01              push        1
  004065A3: FF 75 18           push        dword ptr [ebp+18h]
  004065A6: FF 15 9C 70 40 00  call        dword ptr ds:[0040709Ch]
  004065AC: 3B C3              cmp         eax,ebx
  004065AE: 74 10              je          004065C0
  004065B0: FF 75 14           push        dword ptr [ebp+14h]
  004065B3: 50                 push        eax
  004065B4: 56                 push        esi
  004065B5: FF 75 08           push        dword ptr [ebp+8]
  004065B8: FF 15 C0 70 40 00  call        dword ptr ds:[004070C0h]
  004065BE: EB 02              jmp         004065C2
  004065C0: 33 C0              xor         eax,eax
  004065C2: 8D 65 CC           lea         esp,[ebp-34h]
  004065C5: 8B 4D F0           mov         ecx,dword ptr [ebp-10h]
  004065C8: 64 89 0D 00 00 00  mov         dword ptr fs:[00000000h],ecx
            00
  004065CF: 5F                 pop         edi
  004065D0: 5E                 pop         esi
  004065D1: 5B                 pop         ebx
  004065D2: C9                 leave
  004065D3: C3                 ret
  004065D4: 55                 push        ebp
  004065D5: 8B EC              mov         ebp,esp
  004065D7: 51                 push        ecx
  004065D8: 83 3D 9C AA 40 00  cmp         dword ptr ds:[0040AA9Ch],0
            00
  004065DF: 53                 push        ebx
  004065E0: 75 1D              jne         004065FF
  004065E2: 8B 45 08           mov         eax,dword ptr [ebp+8]
  004065E5: 83 F8 61           cmp         eax,61h
  004065E8: 0F 8C AF 00 00 00  jl          0040669D
  004065EE: 83 F8 7A           cmp         eax,7Ah
  004065F1: 0F 8F A6 00 00 00  jg          0040669D
  004065F7: 83 E8 20           sub         eax,20h
  004065FA: E9 9E 00 00 00     jmp         0040669D
  004065FF: 8B 5D 08           mov         ebx,dword ptr [ebp+8]
  00406602: 81 FB 00 01 00 00  cmp         ebx,100h
  00406608: 7D 28              jge         00406632
  0040660A: 83 3D F0 A8 40 00  cmp         dword ptr ds:[0040A8F0h],1
            01
  00406611: 7E 0C              jle         0040661F
  00406613: 6A 02              push        2
  00406615: 53                 push        ebx
  00406616: E8 85 00 00 00     call        004066A0
  0040661B: 59                 pop         ecx
  0040661C: 59                 pop         ecx
  0040661D: EB 0B              jmp         0040662A
  0040661F: A1 A8 85 40 00     mov         eax,dword ptr ds:[004085A8h]
  00406624: 8A 04 58           mov         al,byte ptr [eax+ebx*2]
  00406627: 83 E0 02           and         eax,2
  0040662A: 85 C0              test        eax,eax
  0040662C: 75 04              jne         00406632
  0040662E: 8B C3              mov         eax,ebx
  00406630: EB 6B              jmp         0040669D
  00406632: 8B 15 A8 85 40 00  mov         edx,dword ptr ds:[004085A8h]
  00406638: 8B C3              mov         eax,ebx
  0040663A: C1 F8 08           sar         eax,8
  0040663D: 0F B6 C8           movzx       ecx,al
  00406640: F6 44 4A 01 80     test        byte ptr [edx+ecx*2+1],80h
  00406645: 74 0E              je          00406655
  00406647: 80 65 0A 00        and         byte ptr [ebp+0Ah],0
  0040664B: 88 45 08           mov         byte ptr [ebp+8],al
  0040664E: 88 5D 09           mov         byte ptr [ebp+9],bl
  00406651: 6A 02              push        2
  00406653: EB 09              jmp         0040665E
  00406655: 80 65 09 00        and         byte ptr [ebp+9],0
  00406659: 88 5D 08           mov         byte ptr [ebp+8],bl
  0040665C: 6A 01              push        1
  0040665E: 58                 pop         eax
  0040665F: 8D 4D FC           lea         ecx,[ebp-4]
  00406662: 6A 01              push        1
  00406664: 6A 00              push        0
  00406666: 6A 03              push        3
  00406668: 51                 push        ecx
  00406669: 50                 push        eax
  0040666A: 8D 45 08           lea         eax,[ebp+8]
  0040666D: 50                 push        eax
  0040666E: 68 00 02 00 00     push        200h
  00406673: FF 35 9C AA 40 00  push        dword ptr ds:[0040AA9Ch]
  00406679: E8 E9 FB FF FF     call        00406267
  0040667E: 83 C4 20           add         esp,20h
  00406681: 85 C0              test        eax,eax
  00406683: 74 A9              je          0040662E
  00406685: 83 F8 01           cmp         eax,1
  00406688: 75 06              jne         00406690
  0040668A: 0F B6 45 FC        movzx       eax,byte ptr [ebp-4]
  0040668E: EB 0D              jmp         0040669D
  00406690: 0F B6 45 FD        movzx       eax,byte ptr [ebp-3]
  00406694: 0F B6 4D FC        movzx       ecx,byte ptr [ebp-4]
  00406698: C1 E0 08           shl         eax,8
  0040669B: 0B C1              or          eax,ecx
  0040669D: 5B                 pop         ebx
  0040669E: C9                 leave
  0040669F: C3                 ret
  004066A0: 55                 push        ebp
  004066A1: 8B EC              mov         ebp,esp
  004066A3: 51                 push        ecx
  004066A4: 8B 45 08           mov         eax,dword ptr [ebp+8]
  004066A7: 8D 48 01           lea         ecx,[eax+1]
  004066AA: 81 F9 00 01 00 00  cmp         ecx,100h
  004066B0: 77 0C              ja          004066BE
  004066B2: 8B 0D A8 85 40 00  mov         ecx,dword ptr ds:[004085A8h]
  004066B8: 0F B7 04 41        movzx       eax,word ptr [ecx+eax*2]
  004066BC: EB 52              jmp         00406710
  004066BE: 8B C8              mov         ecx,eax
  004066C0: 56                 push        esi
  004066C1: 8B 35 A8 85 40 00  mov         esi,dword ptr ds:[004085A8h]
  004066C7: C1 F9 08           sar         ecx,8
  004066CA: 0F B6 D1           movzx       edx,cl
  004066CD: F6 44 56 01 80     test        byte ptr [esi+edx*2+1],80h
  004066D2: 5E                 pop         esi
  004066D3: 74 0E              je          004066E3
  004066D5: 80 65 FE 00        and         byte ptr [ebp-2],0
  004066D9: 88 4D FC           mov         byte ptr [ebp-4],cl
  004066DC: 88 45 FD           mov         byte ptr [ebp-3],al
  004066DF: 6A 02              push        2
  004066E1: EB 09              jmp         004066EC
  004066E3: 80 65 FD 00        and         byte ptr [ebp-3],0
  004066E7: 88 45 FC           mov         byte ptr [ebp-4],al
  004066EA: 6A 01              push        1
  004066EC: 58                 pop         eax
  004066ED: 8D 4D 0A           lea         ecx,[ebp+0Ah]
  004066F0: 6A 01              push        1
  004066F2: 6A 00              push        0
  004066F4: 6A 00              push        0
  004066F6: 51                 push        ecx
  004066F7: 50                 push        eax
  004066F8: 8D 45 FC           lea         eax,[ebp-4]
  004066FB: 50                 push        eax
  004066FC: 6A 01              push        1
  004066FE: E8 88 FD FF FF     call        0040648B
  00406703: 83 C4 1C           add         esp,1Ch
  00406706: 85 C0              test        eax,eax
  00406708: 75 02              jne         0040670C
  0040670A: C9                 leave
  0040670B: C3                 ret
  0040670C: 0F B7 45 0A        movzx       eax,word ptr [ebp+0Ah]
  00406710: 23 45 0C           and         eax,dword ptr [ebp+0Ch]
  00406713: C9                 leave
  00406714: C3                 ret
  00406715: CC                 int         3
  00406716: CC                 int         3
  00406717: CC                 int         3
  00406718: CC                 int         3
  00406719: CC                 int         3
  0040671A: CC                 int         3
  0040671B: CC                 int         3
  0040671C: CC                 int         3
  0040671D: CC                 int         3
  0040671E: CC                 int         3
  0040671F: CC                 int         3
  00406720: 55                 push        ebp
  00406721: 8B EC              mov         ebp,esp
  00406723: 57                 push        edi
  00406724: 56                 push        esi
  00406725: 8B 75 0C           mov         esi,dword ptr [ebp+0Ch]
  00406728: 8B 4D 10           mov         ecx,dword ptr [ebp+10h]
  0040672B: 8B 7D 08           mov         edi,dword ptr [ebp+8]
  0040672E: 8B C1              mov         eax,ecx
  00406730: 8B D1              mov         edx,ecx
  00406732: 03 C6              add         eax,esi
  00406734: 3B FE              cmp         edi,esi
  00406736: 76 08              jbe         00406740
  00406738: 3B F8              cmp         edi,eax
  0040673A: 0F 82 78 01 00 00  jb          004068B8
  00406740: F7 C7 03 00 00 00  test        edi,3
  00406746: 75 14              jne         0040675C
  00406748: C1 E9 02           shr         ecx,2
  0040674B: 83 E2 03           and         edx,3
  0040674E: 83 F9 08           cmp         ecx,8
  00406751: 72 29              jb          0040677C
  00406753: F3 A5              rep movs    dword ptr es:[edi],dword ptr [esi]
  00406755: FF 24 95 68 68 40  jmp         dword ptr [edx*4+00406868h]
            00
  0040675C: 8B C7              mov         eax,edi
  0040675E: BA 03 00 00 00     mov         edx,3
  00406763: 83 E9 04           sub         ecx,4
  00406766: 72 0C              jb          00406774
  00406768: 83 E0 03           and         eax,3
  0040676B: 03 C8              add         ecx,eax
  0040676D: FF 24 85 80 67 40  jmp         dword ptr [eax*4+00406780h]
            00
  00406774: FF 24 8D 78 68 40  jmp         dword ptr [ecx*4+00406878h]
            00
  0040677B: 90                 nop
  0040677C: FF 24 8D FC 67 40  jmp         dword ptr [ecx*4+004067FCh]
            00
  00406783: 90                 nop
  00406784: 90                 nop
  00406785: 67 40              inc         eax
  00406787: 00 BC 67 40 00 E0  add         byte ptr [edi+67E00040h],bh
            67
  0040678E: 40                 inc         eax
  0040678F: 00 23              add         byte ptr [ebx],ah
  00406791: D1 8A 06 88 07 8A  ror         dword ptr [edx+8A078806h],1
  00406797: 46                 inc         esi
  00406798: 01 88 47 01 8A 46  add         dword ptr [eax+468A0147h],ecx
  0040679E: 02 C1              add         al,cl
  004067A0: E9 02 88 47 02     jmp         0287EFA7
  004067A5: 83 C6 03           add         esi,3
  004067A8: 83 C7 03           add         edi,3
  004067AB: 83 F9 08           cmp         ecx,8
  004067AE: 72 CC              jb          0040677C
  004067B0: F3 A5              rep movs    dword ptr es:[edi],dword ptr [esi]
  004067B2: FF 24 95 68 68 40  jmp         dword ptr [edx*4+00406868h]
            00
  004067B9: 8D 49 00           lea         ecx,[ecx]
  004067BC: 23 D1              and         edx,ecx
  004067BE: 8A 06              mov         al,byte ptr [esi]
  004067C0: 88 07              mov         byte ptr [edi],al
  004067C2: 8A 46 01           mov         al,byte ptr [esi+1]
  004067C5: C1 E9 02           shr         ecx,2
  004067C8: 88 47 01           mov         byte ptr [edi+1],al
  004067CB: 83 C6 02           add         esi,2
  004067CE: 83 C7 02           add         edi,2
  004067D1: 83 F9 08           cmp         ecx,8
  004067D4: 72 A6              jb          0040677C
  004067D6: F3 A5              rep movs    dword ptr es:[edi],dword ptr [esi]
  004067D8: FF 24 95 68 68 40  jmp         dword ptr [edx*4+00406868h]
            00
  004067DF: 90                 nop
  004067E0: 23 D1              and         edx,ecx
  004067E2: 8A 06              mov         al,byte ptr [esi]
  004067E4: 88 07              mov         byte ptr [edi],al
  004067E6: 46                 inc         esi
  004067E7: C1 E9 02           shr         ecx,2
  004067EA: 47                 inc         edi
  004067EB: 83 F9 08           cmp         ecx,8
  004067EE: 72 8C              jb          0040677C
  004067F0: F3 A5              rep movs    dword ptr es:[edi],dword ptr [esi]
  004067F2: FF 24 95 68 68 40  jmp         dword ptr [edx*4+00406868h]
            00
  004067F9: 8D 49 00           lea         ecx,[ecx]
  004067FC: 5F                 pop         edi
  004067FD: 68 40 00 4C 68     push        684C0040h
  00406802: 40                 inc         eax
  00406803: 00 44 68 40        add         byte ptr [eax+ebp*2+40h],al
  00406807: 00 3C 68           add         byte ptr [eax+ebp*2],bh
  0040680A: 40                 inc         eax
  0040680B: 00 34 68           add         byte ptr [eax+ebp*2],dh
  0040680E: 40                 inc         eax
  0040680F: 00 2C 68           add         byte ptr [eax+ebp*2],ch
  00406812: 40                 inc         eax
  00406813: 00 24 68           add         byte ptr [eax+ebp*2],ah
  00406816: 40                 inc         eax
  00406817: 00 1C 68           add         byte ptr [eax+ebp*2],bl
  0040681A: 40                 inc         eax
  0040681B: 00 8B 44 8E E4 89  add         byte ptr [ebx+89E48E44h],cl
  00406821: 44                 inc         esp
  00406822: 8F
  00406823: E4 8B              in          al,8Bh
  00406825: 44                 inc         esp
  00406826: 8E E8              mov         gs,ax
  00406828: 89 44 8F E8        mov         dword ptr [edi+ecx*4-18h],eax
  0040682C: 8B 44 8E EC        mov         eax,dword ptr [esi+ecx*4-14h]
  00406830: 89 44 8F EC        mov         dword ptr [edi+ecx*4-14h],eax
  00406834: 8B 44 8E F0        mov         eax,dword ptr [esi+ecx*4-10h]
  00406838: 89 44 8F F0        mov         dword ptr [edi+ecx*4-10h],eax
  0040683C: 8B 44 8E F4        mov         eax,dword ptr [esi+ecx*4-0Ch]
  00406840: 89 44 8F F4        mov         dword ptr [edi+ecx*4-0Ch],eax
  00406844: 8B 44 8E F8        mov         eax,dword ptr [esi+ecx*4-8]
  00406848: 89 44 8F F8        mov         dword ptr [edi+ecx*4-8],eax
  0040684C: 8B 44 8E FC        mov         eax,dword ptr [esi+ecx*4-4]
  00406850: 89 44 8F FC        mov         dword ptr [edi+ecx*4-4],eax
  00406854: 8D 04 8D 00 00 00  lea         eax,[ecx*4+00000000h]
            00
  0040685B: 03 F0              add         esi,eax
  0040685D: 03 F8              add         edi,eax
  0040685F: FF 24 95 68 68 40  jmp         dword ptr [edx*4+00406868h]
            00
  00406866: 8B FF              mov         edi,edi
  00406868: 78 68              js          004068D2
  0040686A: 40                 inc         eax
  0040686B: 00 80 68 40 00 8C  add         byte ptr [eax+8C004068h],al
  00406871: 68 40 00 A0 68     push        68A00040h
  00406876: 40                 inc         eax
  00406877: 00 8B 45 08 5E 5F  add         byte ptr [ebx+5F5E0845h],cl
  0040687D: C9                 leave
  0040687E: C3                 ret
  0040687F: 90                 nop
  00406880: 8A 06              mov         al,byte ptr [esi]
  00406882: 88 07              mov         byte ptr [edi],al
  00406884: 8B 45 08           mov         eax,dword ptr [ebp+8]
  00406887: 5E                 pop         esi
  00406888: 5F                 pop         edi
  00406889: C9                 leave
  0040688A: C3                 ret
  0040688B: 90                 nop
  0040688C: 8A 06              mov         al,byte ptr [esi]
  0040688E: 88 07              mov         byte ptr [edi],al
  00406890: 8A 46 01           mov         al,byte ptr [esi+1]
  00406893: 88 47 01           mov         byte ptr [edi+1],al
  00406896: 8B 45 08           mov         eax,dword ptr [ebp+8]
  00406899: 5E                 pop         esi
  0040689A: 5F                 pop         edi
  0040689B: C9                 leave
  0040689C: C3                 ret
  0040689D: 8D 49 00           lea         ecx,[ecx]
  004068A0: 8A 06              mov         al,byte ptr [esi]
  004068A2: 88 07              mov         byte ptr [edi],al
  004068A4: 8A 46 01           mov         al,byte ptr [esi+1]
  004068A7: 88 47 01           mov         byte ptr [edi+1],al
  004068AA: 8A 46 02           mov         al,byte ptr [esi+2]
  004068AD: 88 47 02           mov         byte ptr [edi+2],al
  004068B0: 8B 45 08           mov         eax,dword ptr [ebp+8]
  004068B3: 5E                 pop         esi
  004068B4: 5F                 pop         edi
  004068B5: C9                 leave
  004068B6: C3                 ret
  004068B7: 90                 nop
  004068B8: 8D 74 31 FC        lea         esi,[ecx+esi-4]
  004068BC: 8D 7C 39 FC        lea         edi,[ecx+edi-4]
  004068C0: F7 C7 03 00 00 00  test        edi,3
  004068C6: 75 24              jne         004068EC
  004068C8: C1 E9 02           shr         ecx,2
  004068CB: 83 E2 03           and         edx,3
  004068CE: 83 F9 08           cmp         ecx,8
  004068D1: 72 0D              jb          004068E0
  004068D3: FD                 std
  004068D4: F3 A5              rep movs    dword ptr es:[edi],dword ptr [esi]
  004068D6: FC                 cld
  004068D7: FF 24 95 00 6A 40  jmp         dword ptr [edx*4+00406A00h]
            00
  004068DE: 8B FF              mov         edi,edi
  004068E0: F7 D9              neg         ecx
  004068E2: FF 24 8D B0 69 40  jmp         dword ptr [ecx*4+004069B0h]
            00
  004068E9: 8D 49 00           lea         ecx,[ecx]
  004068EC: 8B C7              mov         eax,edi
  004068EE: BA 03 00 00 00     mov         edx,3
  004068F3: 83 F9 04           cmp         ecx,4
  004068F6: 72 0C              jb          00406904
  004068F8: 83 E0 03           and         eax,3
  004068FB: 2B C8              sub         ecx,eax
  004068FD: FF 24 85 08 69 40  jmp         dword ptr [eax*4+00406908h]
            00
  00406904: FF 24 8D 00 6A 40  jmp         dword ptr [ecx*4+00406A00h]
            00
  0040690B: 90                 nop
  0040690C: 18 69 40           sbb         byte ptr [ecx+40h],ch
  0040690F: 00 38              add         byte ptr [eax],bh
  00406911: 69 40 00 60 69 40  imul        eax,dword ptr [eax],406960h
            00
  00406918: 8A 46 03           mov         al,byte ptr [esi+3]
  0040691B: 23 D1              and         edx,ecx
  0040691D: 88 47 03           mov         byte ptr [edi+3],al
  00406920: 4E                 dec         esi
  00406921: C1 E9 02           shr         ecx,2
  00406924: 4F                 dec         edi
  00406925: 83 F9 08           cmp         ecx,8
  00406928: 72 B6              jb          004068E0
  0040692A: FD                 std
  0040692B: F3 A5              rep movs    dword ptr es:[edi],dword ptr [esi]
  0040692D: FC                 cld
  0040692E: FF 24 95 00 6A 40  jmp         dword ptr [edx*4+00406A00h]
            00
  00406935: 8D 49 00           lea         ecx,[ecx]
  00406938: 8A 46 03           mov         al,byte ptr [esi+3]
  0040693B: 23 D1              and         edx,ecx
  0040693D: 88 47 03           mov         byte ptr [edi+3],al
  00406940: 8A 46 02           mov         al,byte ptr [esi+2]
  00406943: C1 E9 02           shr         ecx,2
  00406946: 88 47 02           mov         byte ptr [edi+2],al
  00406949: 83 EE 02           sub         esi,2
  0040694C: 83 EF 02           sub         edi,2
  0040694F: 83 F9 08           cmp         ecx,8
  00406952: 72 8C              jb          004068E0
  00406954: FD                 std
  00406955: F3 A5              rep movs    dword ptr es:[edi],dword ptr [esi]
  00406957: FC                 cld
  00406958: FF 24 95 00 6A 40  jmp         dword ptr [edx*4+00406A00h]
            00
  0040695F: 90                 nop
  00406960: 8A 46 03           mov         al,byte ptr [esi+3]
  00406963: 23 D1              and         edx,ecx
  00406965: 88 47 03           mov         byte ptr [edi+3],al
  00406968: 8A 46 02           mov         al,byte ptr [esi+2]
  0040696B: 88 47 02           mov         byte ptr [edi+2],al
  0040696E: 8A 46 01           mov         al,byte ptr [esi+1]
  00406971: C1 E9 02           shr         ecx,2
  00406974: 88 47 01           mov         byte ptr [edi+1],al
  00406977: 83 EE 03           sub         esi,3
  0040697A: 83 EF 03           sub         edi,3
  0040697D: 83 F9 08           cmp         ecx,8
  00406980: 0F 82 5A FF FF FF  jb          004068E0
  00406986: FD                 std
  00406987: F3 A5              rep movs    dword ptr es:[edi],dword ptr [esi]
  00406989: FC                 cld
  0040698A: FF 24 95 00 6A 40  jmp         dword ptr [edx*4+00406A00h]
            00
  00406991: 8D 49 00           lea         ecx,[ecx]
  00406994: B4 69              mov         ah,69h
  00406996: 40                 inc         eax
  00406997: 00 BC 69 40 00 C4  add         byte ptr [ecx+ebp*2+69C40040h],bh
            69
  0040699E: 40                 inc         eax
  0040699F: 00 CC              add         ah,cl
  004069A1: 69 40 00 D4 69 40  imul        eax,dword ptr [eax],4069D4h
            00
  004069A8: DC 69 40           fsubr       qword ptr [ecx+40h]
  004069AB: 00 E4              add         ah,ah
  004069AD: 69 40 00 F7 69 40  imul        eax,dword ptr [eax],4069F7h
            00
  004069B4: 8B 44 8E 1C        mov         eax,dword ptr [esi+ecx*4+1Ch]
  004069B8: 89 44 8F 1C        mov         dword ptr [edi+ecx*4+1Ch],eax
  004069BC: 8B 44 8E 18        mov         eax,dword ptr [esi+ecx*4+18h]
  004069C0: 89 44 8F 18        mov         dword ptr [edi+ecx*4+18h],eax
  004069C4: 8B 44 8E 14        mov         eax,dword ptr [esi+ecx*4+14h]
  004069C8: 89 44 8F 14        mov         dword ptr [edi+ecx*4+14h],eax
  004069CC: 8B 44 8E 10        mov         eax,dword ptr [esi+ecx*4+10h]
  004069D0: 89 44 8F 10        mov         dword ptr [edi+ecx*4+10h],eax
  004069D4: 8B 44 8E 0C        mov         eax,dword ptr [esi+ecx*4+0Ch]
  004069D8: 89 44 8F 0C        mov         dword ptr [edi+ecx*4+0Ch],eax
  004069DC: 8B 44 8E 08        mov         eax,dword ptr [esi+ecx*4+8]
  004069E0: 89 44 8F 08        mov         dword ptr [edi+ecx*4+8],eax
  004069E4: 8B 44 8E 04        mov         eax,dword ptr [esi+ecx*4+4]
  004069E8: 89 44 8F 04        mov         dword ptr [edi+ecx*4+4],eax
  004069EC: 8D 04 8D 00 00 00  lea         eax,[ecx*4+00000000h]
            00
  004069F3: 03 F0              add         esi,eax
  004069F5: 03 F8              add         edi,eax
  004069F7: FF 24 95 00 6A 40  jmp         dword ptr [edx*4+00406A00h]
            00
  004069FE: 8B FF              mov         edi,edi
  00406A00: 10 6A 40           adc         byte ptr [edx+40h],ch
  00406A03: 00 18              add         byte ptr [eax],bl
  00406A05: 6A 40              push        40h
  00406A07: 00 28              add         byte ptr [eax],ch
  00406A09: 6A 40              push        40h
  00406A0B: 00 3C 6A           add         byte ptr [edx+ebp*2],bh
  00406A0E: 40                 inc         eax
  00406A0F: 00 8B 45 08 5E 5F  add         byte ptr [ebx+5F5E0845h],cl
  00406A15: C9                 leave
  00406A16: C3                 ret
  00406A17: 90                 nop
  00406A18: 8A 46 03           mov         al,byte ptr [esi+3]
  00406A1B: 88 47 03           mov         byte ptr [edi+3],al
  00406A1E: 8B 45 08           mov         eax,dword ptr [ebp+8]
  00406A21: 5E                 pop         esi
  00406A22: 5F                 pop         edi
  00406A23: C9                 leave
  00406A24: C3                 ret
  00406A25: 8D 49 00           lea         ecx,[ecx]
  00406A28: 8A 46 03           mov         al,byte ptr [esi+3]
  00406A2B: 88 47 03           mov         byte ptr [edi+3],al
  00406A2E: 8A 46 02           mov         al,byte ptr [esi+2]
  00406A31: 88 47 02           mov         byte ptr [edi+2],al
  00406A34: 8B 45 08           mov         eax,dword ptr [ebp+8]
  00406A37: 5E                 pop         esi
  00406A38: 5F                 pop         edi
  00406A39: C9                 leave
  00406A3A: C3                 ret
  00406A3B: 90                 nop
  00406A3C: 8A 46 03           mov         al,byte ptr [esi+3]
  00406A3F: 88 47 03           mov         byte ptr [edi+3],al
  00406A42: 8A 46 02           mov         al,byte ptr [esi+2]
  00406A45: 88 47 02           mov         byte ptr [edi+2],al
  00406A48: 8A 46 01           mov         al,byte ptr [esi+1]
  00406A4B: 88 47 01           mov         byte ptr [edi+1],al
  00406A4E: 8B 45 08           mov         eax,dword ptr [ebp+8]
  00406A51: 5E                 pop         esi
  00406A52: 5F                 pop         edi
  00406A53: C9                 leave
  00406A54: C3                 ret
  00406A55: 55                 push        ebp
  00406A56: 8B EC              mov         ebp,esp
  00406A58: 51                 push        ecx
  00406A59: 83 7D 08 00        cmp         dword ptr [ebp+8],0
  00406A5D: 53                 push        ebx
  00406A5E: 56                 push        esi
  00406A5F: 57                 push        edi
  00406A60: 75 0E              jne         00406A70
  00406A62: FF 75 0C           push        dword ptr [ebp+0Ch]
  00406A65: E8 B5 C5 FF FF     call        0040301F
  00406A6A: 59                 pop         ecx
  00406A6B: E9 80 02 00 00     jmp         00406CF0
  00406A70: 8B 75 0C           mov         esi,dword ptr [ebp+0Ch]
  00406A73: 85 F6              test        esi,esi
  00406A75: 75 0E              jne         00406A85
  00406A77: FF 75 08           push        dword ptr [ebp+8]
  00406A7A: E8 F1 C2 FF FF     call        00402D70
  00406A7F: 59                 pop         ecx
  00406A80: E9 69 02 00 00     jmp         00406CEE
  00406A85: A1 0C AD 40 00     mov         eax,dword ptr ds:[0040AD0Ch]
  00406A8A: 83 F8 03           cmp         eax,3
  00406A8D: 0F 85 02 01 00 00  jne         00406B95
  00406A93: 33 FF              xor         edi,edi
  00406A95: 83 FE E0           cmp         esi,0FFFFFFE0h
  00406A98: 0F 87 D3 00 00 00  ja          00406B71
  00406A9E: FF 75 08           push        dword ptr [ebp+8]
  00406AA1: E8 91 DB FF FF     call        00404637
  00406AA6: 8B D8              mov         ebx,eax
  00406AA8: 59                 pop         ecx
  00406AA9: 85 DB              test        ebx,ebx
  00406AAB: 0F 84 9B 00 00 00  je          00406B4C
  00406AB1: 3B 35 D4 AA 40 00  cmp         esi,dword ptr ds:[0040AAD4h]
  00406AB7: 77 4C              ja          00406B05
  00406AB9: 8B 7D 08           mov         edi,dword ptr [ebp+8]
  00406ABC: 56                 push        esi
  00406ABD: 57                 push        edi
  00406ABE: 53                 push        ebx
  00406ABF: E8 7C E3 FF FF     call        00404E40
  00406AC4: 83 C4 0C           add         esp,0Ch
  00406AC7: 85 C0              test        eax,eax
  00406AC9: 75 36              jne         00406B01
  00406ACB: 56                 push        esi
  00406ACC: E8 BA DE FF FF     call        0040498B
  00406AD1: 8B F8              mov         edi,eax
  00406AD3: 59                 pop         ecx
  00406AD4: 85 FF              test        edi,edi
  00406AD6: 74 2D              je          00406B05
  00406AD8: 8B 5D 08           mov         ebx,dword ptr [ebp+8]
  00406ADB: 8B 43 FC           mov         eax,dword ptr [ebx-4]
  00406ADE: 48                 dec         eax
  00406ADF: 3B C6              cmp         eax,esi
  00406AE1: 72 02              jb          00406AE5
  00406AE3: 8B C6              mov         eax,esi
  00406AE5: 50                 push        eax
  00406AE6: 53                 push        ebx
  00406AE7: 57                 push        edi
  00406AE8: E8 E3 D3 FF FF     call        00403ED0
  00406AED: 53                 push        ebx
  00406AEE: E8 44 DB FF FF     call        00404637
  00406AF3: FF 75 08           push        dword ptr [ebp+8]
  00406AF6: 8B D8              mov         ebx,eax
  00406AF8: 53                 push        ebx
  00406AF9: E8 64 DB FF FF     call        00404662
  00406AFE: 83 C4 18           add         esp,18h
  00406B01: 85 FF              test        edi,edi
  00406B03: 75 43              jne         00406B48
  00406B05: 85 F6              test        esi,esi
  00406B07: 75 03              jne         00406B0C
  00406B09: 6A 01              push        1
  00406B0B: 5E                 pop         esi
  00406B0C: 83 C6 0F           add         esi,0Fh
  00406B0F: 83 E6 F0           and         esi,0FFFFFFF0h
  00406B12: 56                 push        esi
  00406B13: 6A 00              push        0
  00406B15: FF 35 08 AD 40 00  push        dword ptr ds:[0040AD08h]
  00406B1B: FF 15 6C 70 40 00  call        dword ptr ds:[0040706Ch]
  00406B21: 8B F8              mov         edi,eax
  00406B23: 85 FF              test        edi,edi
  00406B25: 74 21              je          00406B48
  00406B27: 8B 4D 08           mov         ecx,dword ptr [ebp+8]
  00406B2A: 8B 41 FC           mov         eax,dword ptr [ecx-4]
  00406B2D: 48                 dec         eax
  00406B2E: 3B C6              cmp         eax,esi
  00406B30: 72 02              jb          00406B34
  00406B32: 8B C6              mov         eax,esi
  00406B34: 50                 push        eax
  00406B35: 51                 push        ecx
  00406B36: 57                 push        edi
  00406B37: E8 94 D3 FF FF     call        00403ED0
  00406B3C: FF 75 08           push        dword ptr [ebp+8]
  00406B3F: 53                 push        ebx
  00406B40: E8 1D DB FF FF     call        00404662
  00406B45: 83 C4 14           add         esp,14h
  00406B48: 85 DB              test        ebx,ebx
  00406B4A: 75 21              jne         00406B6D
  00406B4C: 85 F6              test        esi,esi
  00406B4E: 75 03              jne         00406B53
  00406B50: 6A 01              push        1
  00406B52: 5E                 pop         esi
  00406B53: 83 C6 0F           add         esi,0Fh
  00406B56: 83 E6 F0           and         esi,0FFFFFFF0h
  00406B59: 56                 push        esi
  00406B5A: FF 75 08           push        dword ptr [ebp+8]
  00406B5D: 6A 00              push        0
  00406B5F: FF 35 08 AD 40 00  push        dword ptr ds:[0040AD08h]
  00406B65: FF 15 90 70 40 00  call        dword ptr ds:[00407090h]
  00406B6B: 8B F8              mov         edi,eax
  00406B6D: 85 FF              test        edi,edi
  00406B6F: 75 1D              jne         00406B8E
  00406B71: 83 3D 88 AA 40 00  cmp         dword ptr ds:[0040AA88h],0
            00
  00406B78: 74 14              je          00406B8E
  00406B7A: 56                 push        esi
  00406B7B: E8 37 EE FF FF     call        004059B7
  00406B80: 85 C0              test        eax,eax
  00406B82: 59                 pop         ecx
  00406B83: 0F 85 0A FF FF FF  jne         00406A93
  00406B89: E9 60 01 00 00     jmp         00406CEE
  00406B8E: 8B C7              mov         eax,edi
  00406B90: E9 5B 01 00 00     jmp         00406CF0
  00406B95: 83 F8 02           cmp         eax,2
  00406B98: 0F 85 12 01 00 00  jne         00406CB0
  00406B9E: 83 FE E0           cmp         esi,0FFFFFFE0h
  00406BA1: 77 0F              ja          00406BB2
  00406BA3: 85 F6              test        esi,esi
  00406BA5: 76 08              jbe         00406BAF
  00406BA7: 83 C6 0F           add         esi,0Fh
  00406BAA: 83 E6 F0           and         esi,0FFFFFFF0h
  00406BAD: EB 03              jmp         00406BB2
  00406BAF: 6A 10              push        10h
  00406BB1: 5E                 pop         esi
  00406BB2: 33 FF              xor         edi,edi
  00406BB4: 83 FE E0           cmp         esi,0FFFFFFE0h
  00406BB7: 0F 87 D5 00 00 00  ja          00406C92
  00406BBD: 8D 45 0C           lea         eax,[ebp+0Ch]
  00406BC0: 50                 push        eax
  00406BC1: 8D 45 FC           lea         eax,[ebp-4]
  00406BC4: 50                 push        eax
  00406BC5: FF 75 08           push        dword ptr [ebp+8]
  00406BC8: E8 C5 E7 FF FF     call        00405392
  00406BCD: 8B D8              mov         ebx,eax
  00406BCF: 83 C4 0C           add         esp,0Ch
  00406BD2: 85 DB              test        ebx,ebx
  00406BD4: 0F 84 9C 00 00 00  je          00406C76
  00406BDA: 3B 35 E4 A8 40 00  cmp         esi,dword ptr ds:[0040A8E4h]
  00406BE0: 73 58              jae         00406C3A
  00406BE2: 8B FE              mov         edi,esi
  00406BE4: C1 EF 04           shr         edi,4
  00406BE7: 57                 push        edi
  00406BE8: 53                 push        ebx
  00406BE9: FF 75 0C           push        dword ptr [ebp+0Ch]
  00406BEC: FF 75 FC           push        dword ptr [ebp-4]
  00406BEF: E8 66 EB FF FF     call        0040575A
  00406BF4: 83 C4 10           add         esp,10h
  00406BF7: 85 C0              test        eax,eax
  00406BF9: 74 05              je          00406C00
  00406BFB: 8B 7D 08           mov         edi,dword ptr [ebp+8]
  00406BFE: EB 32              jmp         00406C32
  00406C00: 57                 push        edi
  00406C01: E8 28 E8 FF FF     call        0040542E
  00406C06: 8B F8              mov         edi,eax
  00406C08: 59                 pop         ecx
  00406C09: 85 FF              test        edi,edi
  00406C0B: 74 2D              je          00406C3A
  00406C0D: 0F B6 03           movzx       eax,byte ptr [ebx]
  00406C10: C1 E0 04           shl         eax,4
  00406C13: 3B C6              cmp         eax,esi
  00406C15: 72 02              jb          00406C19
  00406C17: 8B C6              mov         eax,esi
  00406C19: 50                 push        eax
  00406C1A: FF 75 08           push        dword ptr [ebp+8]
  00406C1D: 57                 push        edi
  00406C1E: E8 AD D2 FF FF     call        00403ED0
  00406C23: 53                 push        ebx
  00406C24: FF 75 0C           push        dword ptr [ebp+0Ch]
  00406C27: FF 75 FC           push        dword ptr [ebp-4]
  00406C2A: E8 BA E7 FF FF     call        004053E9
  00406C2F: 83 C4 18           add         esp,18h
  00406C32: 85 FF              test        edi,edi
  00406C34: 0F 85 54 FF FF FF  jne         00406B8E
  00406C3A: 56                 push        esi
  00406C3B: 6A 00              push        0
  00406C3D: FF 35 08 AD 40 00  push        dword ptr ds:[0040AD08h]
  00406C43: FF 15 6C 70 40 00  call        dword ptr ds:[0040706Ch]
  00406C49: 8B F8              mov         edi,eax
  00406C4B: 85 FF              test        edi,edi
  00406C4D: 74 43              je          00406C92
  00406C4F: 0F B6 03           movzx       eax,byte ptr [ebx]
  00406C52: C1 E0 04           shl         eax,4
  00406C55: 3B C6              cmp         eax,esi
  00406C57: 72 02              jb          00406C5B
  00406C59: 8B C6              mov         eax,esi
  00406C5B: 50                 push        eax
  00406C5C: FF 75 08           push        dword ptr [ebp+8]
  00406C5F: 57                 push        edi
  00406C60: E8 6B D2 FF FF     call        00403ED0
  00406C65: 53                 push        ebx
  00406C66: FF 75 0C           push        dword ptr [ebp+0Ch]
  00406C69: FF 75 FC           push        dword ptr [ebp-4]
  00406C6C: E8 78 E7 FF FF     call        004053E9
  00406C71: 83 C4 18           add         esp,18h
  00406C74: EB 14              jmp         00406C8A
  00406C76: 56                 push        esi
  00406C77: FF 75 08           push        dword ptr [ebp+8]
  00406C7A: 6A 00              push        0
  00406C7C: FF 35 08 AD 40 00  push        dword ptr ds:[0040AD08h]
  00406C82: FF 15 90 70 40 00  call        dword ptr ds:[00407090h]
  00406C88: 8B F8              mov         edi,eax
  00406C8A: 85 FF              test        edi,edi
  00406C8C: 0F 85 FC FE FF FF  jne         00406B8E
  00406C92: 83 3D 88 AA 40 00  cmp         dword ptr ds:[0040AA88h],0
            00
  00406C99: 0F 84 EF FE FF FF  je          00406B8E
  00406C9F: 56                 push        esi
  00406CA0: E8 12 ED FF FF     call        004059B7
  00406CA5: 85 C0              test        eax,eax
  00406CA7: 59                 pop         ecx
  00406CA8: 0F 85 04 FF FF FF  jne         00406BB2
  00406CAE: EB 3E              jmp         00406CEE
  00406CB0: 33 C0              xor         eax,eax
  00406CB2: 83 FE E0           cmp         esi,0FFFFFFE0h
  00406CB5: 77 23              ja          00406CDA
  00406CB7: 85 F6              test        esi,esi
  00406CB9: 75 03              jne         00406CBE
  00406CBB: 6A 01              push        1
  00406CBD: 5E                 pop         esi
  00406CBE: 83 C6 0F           add         esi,0Fh
  00406CC1: 83 E6 F0           and         esi,0FFFFFFF0h
  00406CC4: 56                 push        esi
  00406CC5: FF 75 08           push        dword ptr [ebp+8]
  00406CC8: 6A 00              push        0
  00406CCA: FF 35 08 AD 40 00  push        dword ptr ds:[0040AD08h]
  00406CD0: FF 15 90 70 40 00  call        dword ptr ds:[00407090h]
  00406CD6: 85 C0              test        eax,eax
  00406CD8: 75 16              jne         00406CF0
  00406CDA: 83 3D 88 AA 40 00  cmp         dword ptr ds:[0040AA88h],0
            00
  00406CE1: 74 0D              je          00406CF0
  00406CE3: 56                 push        esi
  00406CE4: E8 CE EC FF FF     call        004059B7
  00406CE9: 85 C0              test        eax,eax
  00406CEB: 59                 pop         ecx
  00406CEC: 75 C2              jne         00406CB0
  00406CEE: 33 C0              xor         eax,eax
  00406CF0: 5F                 pop         edi
  00406CF1: 5E                 pop         esi
  00406CF2: 5B                 pop         ebx
  00406CF3: C9                 leave
  00406CF4: C3                 ret
  00406CF5: 56                 push        esi
  00406CF6: 8B 74 24 08        mov         esi,dword ptr [esp+8]
  00406CFA: 85 F6              test        esi,esi
  00406CFC: 74 1E              je          00406D1C
  00406CFE: 56                 push        esi
  00406CFF: E8 2C C2 FF FF     call        00402F30
  00406D04: 40                 inc         eax
  00406D05: 50                 push        eax
  00406D06: E8 14 C3 FF FF     call        0040301F
  00406D0B: 59                 pop         ecx
  00406D0C: 85 C0              test        eax,eax
  00406D0E: 59                 pop         ecx
  00406D0F: 74 0B              je          00406D1C
  00406D11: 56                 push        esi
  00406D12: 50                 push        eax
  00406D13: E8 C8 C0 FF FF     call        00402DE0
  00406D18: 59                 pop         ecx
  00406D19: 59                 pop         ecx
  00406D1A: 5E                 pop         esi
  00406D1B: C3                 ret
  00406D1C: 33 C0              xor         eax,eax
  00406D1E: 5E                 pop         esi
  00406D1F: C3                 ret
  00406D20: 8B 4C 24 04        mov         ecx,dword ptr [esp+4]
  00406D24: 56                 push        esi
  00406D25: 3B 0D 20 AE 40 00  cmp         ecx,dword ptr ds:[0040AE20h]
  00406D2B: 57                 push        edi
  00406D2C: 73 55              jae         00406D83
  00406D2E: 8B C1              mov         eax,ecx
  00406D30: 8B F1              mov         esi,ecx
  00406D32: C1 F8 05           sar         eax,5
  00406D35: 83 E6 1F           and         esi,1Fh
  00406D38: 8D 3C 85 20 AD 40  lea         edi,[eax*4+0040AD20h]
            00
  00406D3F: C1 E6 03           shl         esi,3
  00406D42: 8B 07              mov         eax,dword ptr [edi]
  00406D44: 03 C6              add         eax,esi
  00406D46: F6 40 04 01        test        byte ptr [eax+4],1
  00406D4A: 74 37              je          00406D83
  00406D4C: 83 38 FF           cmp         dword ptr [eax],0FFFFFFFFh
  00406D4F: 74 32              je          00406D83
  00406D51: 83 3D 44 80 40 00  cmp         dword ptr ds:[00408044h],1
            01
  00406D58: 75 1F              jne         00406D79
  00406D5A: 33 C0              xor         eax,eax
  00406D5C: 2B C8              sub         ecx,eax
  00406D5E: 74 10              je          00406D70
  00406D60: 49                 dec         ecx
  00406D61: 74 08              je          00406D6B
  00406D63: 49                 dec         ecx
  00406D64: 75 13              jne         00406D79
  00406D66: 50                 push        eax
  00406D67: 6A F4              push        0FFFFFFF4h
  00406D69: EB 08              jmp         00406D73
  00406D6B: 50                 push        eax
  00406D6C: 6A F5              push        0FFFFFFF5h
  00406D6E: EB 03              jmp         00406D73
  00406D70: 50                 push        eax
  00406D71: 6A F6              push        0FFFFFFF6h
  00406D73: FF 15 C4 70 40 00  call        dword ptr ds:[004070C4h]
  00406D79: 8B 07              mov         eax,dword ptr [edi]
  00406D7B: 83 0C 30 FF        or          dword ptr [eax+esi],0FFFFFFFFh
  00406D7F: 33 C0              xor         eax,eax
  00406D81: EB 14              jmp         00406D97
  00406D83: 83 25 10 A9 40 00  and         dword ptr ds:[0040A910h],0
            00
  00406D8A: C7 05 0C A9 40 00  mov         dword ptr ds:[0040A90Ch],9
            09 00 00 00
  00406D94: 83 C8 FF           or          eax,0FFFFFFFFh
  00406D97: 5F                 pop         edi
  00406D98: 5E                 pop         esi
  00406D99: C3                 ret
  00406D9A: 8B 44 24 04        mov         eax,dword ptr [esp+4]
  00406D9E: 3B 05 20 AE 40 00  cmp         eax,dword ptr ds:[0040AE20h]
  00406DA4: 73 1C              jae         00406DC2
  00406DA6: 8B C8              mov         ecx,eax
  00406DA8: 83 E0 1F           and         eax,1Fh
  00406DAB: C1 F9 05           sar         ecx,5
  00406DAE: 8B 0C 8D 20 AD 40  mov         ecx,dword ptr [ecx*4+0040AD20h]
            00
  00406DB5: F6 44 C1 04 01     test        byte ptr [ecx+eax*8+4],1
  00406DBA: 8D 04 C1           lea         eax,[ecx+eax*8]
  00406DBD: 74 03              je          00406DC2
  00406DBF: 8B 00              mov         eax,dword ptr [eax]
  00406DC1: C3                 ret
  00406DC2: 83 25 10 A9 40 00  and         dword ptr ds:[0040A910h],0
            00
  00406DC9: C7 05 0C A9 40 00  mov         dword ptr ds:[0040A90Ch],9
            09 00 00 00
  00406DD3: 83 C8 FF           or          eax,0FFFFFFFFh
  00406DD6: C3                 ret
  00406DD7: 53                 push        ebx
  00406DD8: 55                 push        ebp
  00406DD9: 56                 push        esi
  00406DDA: 57                 push        edi
  00406DDB: 8B 7C 24 14        mov         edi,dword ptr [esp+14h]
  00406DDF: 3B 3D 20 AE 40 00  cmp         edi,dword ptr ds:[0040AE20h]
  00406DE5: 0F 83 86 00 00 00  jae         00406E71
  00406DEB: 8B C7              mov         eax,edi
  00406DED: 8B F7              mov         esi,edi
  00406DEF: C1 F8 05           sar         eax,5
  00406DF2: 83 E6 1F           and         esi,1Fh
  00406DF5: 8D 1C 85 20 AD 40  lea         ebx,[eax*4+0040AD20h]
            00
  00406DFC: C1 E6 03           shl         esi,3
  00406DFF: 8B 03              mov         eax,dword ptr [ebx]
  00406E01: F6 44 30 04 01     test        byte ptr [eax+esi+4],1
  00406E06: 74 69              je          00406E71
  00406E08: 57                 push        edi
  00406E09: E8 8C FF FF FF     call        00406D9A
  00406E0E: 83 F8 FF           cmp         eax,0FFFFFFFFh
  00406E11: 59                 pop         ecx
  00406E12: 74 3C              je          00406E50
  00406E14: 83 FF 01           cmp         edi,1
  00406E17: 74 05              je          00406E1E
  00406E19: 83 FF 02           cmp         edi,2
  00406E1C: 75 16              jne         00406E34
  00406E1E: 6A 02              push        2
  00406E20: E8 75 FF FF FF     call        00406D9A
  00406E25: 6A 01              push        1
  00406E27: 8B E8              mov         ebp,eax
  00406E29: E8 6C FF FF FF     call        00406D9A
  00406E2E: 59                 pop         ecx
  00406E2F: 3B C5              cmp         eax,ebp
  00406E31: 59                 pop         ecx
  00406E32: 74 1C              je          00406E50
  00406E34: 57                 push        edi
  00406E35: E8 60 FF FF FF     call        00406D9A
  00406E3A: 59                 pop         ecx
  00406E3B: 50                 push        eax
  00406E3C: FF 15 78 70 40 00  call        dword ptr ds:[00407078h]
  00406E42: 85 C0              test        eax,eax
  00406E44: 75 0A              jne         00406E50
  00406E46: FF 15 14 70 40 00  call        dword ptr ds:[00407014h]
  00406E4C: 8B E8              mov         ebp,eax
  00406E4E: EB 02              jmp         00406E52
  00406E50: 33 ED              xor         ebp,ebp
  00406E52: 57                 push        edi
  00406E53: E8 C8 FE FF FF     call        00406D20
  00406E58: 8B 03              mov         eax,dword ptr [ebx]
  00406E5A: 59                 pop         ecx
  00406E5B: 80 64 30 04 00     and         byte ptr [eax+esi+4],0
  00406E60: 85 ED              test        ebp,ebp
  00406E62: 74 09              je          00406E6D
  00406E64: 55                 push        ebp
  00406E65: E8 BD C6 FF FF     call        00403527
  00406E6A: 59                 pop         ecx
  00406E6B: EB 15              jmp         00406E82
  00406E6D: 33 C0              xor         eax,eax
  00406E6F: EB 14              jmp         00406E85
  00406E71: 83 25 10 A9 40 00  and         dword ptr ds:[0040A910h],0
            00
  00406E78: C7 05 0C A9 40 00  mov         dword ptr ds:[0040A90Ch],9
            09 00 00 00
  00406E82: 83 C8 FF           or          eax,0FFFFFFFFh
  00406E85: 5F                 pop         edi
  00406E86: 5E                 pop         esi
  00406E87: 5D                 pop         ebp
  00406E88: 5B                 pop         ebx
  00406E89: C3                 ret
  00406E8A: 56                 push        esi
  00406E8B: 8B 74 24 08        mov         esi,dword ptr [esp+8]
  00406E8F: 8B 46 0C           mov         eax,dword ptr [esi+0Ch]
  00406E92: A8 83              test        al,83h
  00406E94: 74 1D              je          00406EB3
  00406E96: A8 08              test        al,8
  00406E98: 74 19              je          00406EB3
  00406E9A: FF 76 08           push        dword ptr [esi+8]
  00406E9D: E8 CE BE FF FF     call        00402D70
  00406EA2: 66 81 66 0C F7 FB  and         word ptr [esi+0Ch],0FBF7h
  00406EA8: 33 C0              xor         eax,eax
  00406EAA: 59                 pop         ecx
  00406EAB: 89 06              mov         dword ptr [esi],eax
  00406EAD: 89 46 08           mov         dword ptr [esi+8],eax
  00406EB0: 89 46 04           mov         dword ptr [esi+4],eax
  00406EB3: 5E                 pop         esi
  00406EB4: C3                 ret
  00406EB5: CC                 int         3
  00406EB6: FF 25 64 70 40 00  jmp         dword ptr ds:[00407064h]

  Summary

        4000 .data
        1000 .rdata
        6000 .text
